
kernel.elf:     file format elf32-tradlittlemips


Disassembly of section .text:

80000000 <_ftext>:
80000000:	401a2000 	mfc0	k0,c0_context
80000004:	8f5b0000 	lw	k1,0(k0)
80000008:	409b1000 	mtc0	k1,c0_entrylo0
8000000c:	8f5b0004 	lw	k1,4(k0)
80000010:	409b1800 	mtc0	k1,c0_entrylo1
80000014:	8f5b0008 	lw	k1,8(k0)
80000018:	409b5000 	mtc0	k1,c0_entryhi
8000001c:	8f5b000c 	lw	k1,12(k0)
80000020:	409b2800 	mtc0	k1,c0_pagemask
	...
8000002c:	42000006 	tlbwr
80000030:	42000018 	eret
	...
80000180:	3c1a8000 	lui	k0,0x8000
80000184:	03bad02b 	sltu	k0,sp,k0
80000188:	13400074 	beqz	k0,8000035c <exception_save_context>
8000018c:	03a0d825 	move	k1,sp
80000190:	3c1a8000 	lui	k0,0x8000
80000194:	275a7d0c 	addiu	k0,k0,32012
80000198:	080000d7 	j	8000035c <exception_save_context>
8000019c:	8f5d0000 	lw	sp,0(k0)
	...
80000200:	3c1a8000 	lui	k0,0x8000
80000204:	03bad02b 	sltu	k0,sp,k0
80000208:	13400004 	beqz	k0,8000021c <interrupt_save_context>
8000020c:	03a0d825 	move	k1,sp
80000210:	3c1a8000 	lui	k0,0x8000
80000214:	275a7d0c 	addiu	k0,k0,32012
80000218:	8f5d0000 	lw	sp,0(k0)

8000021c <interrupt_save_context>:
8000021c:	27bdff80 	addiu	sp,sp,-128
80000220:	afa10004 	sw	at,4(sp)
80000224:	afa20008 	sw	v0,8(sp)
80000228:	afa3000c 	sw	v1,12(sp)
8000022c:	afa40010 	sw	a0,16(sp)
80000230:	afa50014 	sw	a1,20(sp)
80000234:	afa60018 	sw	a2,24(sp)
80000238:	afa7001c 	sw	a3,28(sp)
8000023c:	afa80020 	sw	t0,32(sp)
80000240:	afa90024 	sw	t1,36(sp)
80000244:	afaa0028 	sw	t2,40(sp)
80000248:	afab002c 	sw	t3,44(sp)
8000024c:	afac0030 	sw	t4,48(sp)
80000250:	afad0034 	sw	t5,52(sp)
80000254:	afae0038 	sw	t6,56(sp)
80000258:	afaf003c 	sw	t7,60(sp)
8000025c:	afb00040 	sw	s0,64(sp)
80000260:	afb10044 	sw	s1,68(sp)
80000264:	afb20048 	sw	s2,72(sp)
80000268:	afb3004c 	sw	s3,76(sp)
8000026c:	afb40050 	sw	s4,80(sp)
80000270:	afb50054 	sw	s5,84(sp)
80000274:	afb60058 	sw	s6,88(sp)
80000278:	afb7005c 	sw	s7,92(sp)
8000027c:	afb80060 	sw	t8,96(sp)
80000280:	afb90064 	sw	t9,100(sp)
80000284:	afbc0070 	sw	gp,112(sp)
80000288:	afbb0074 	sw	k1,116(sp)
8000028c:	afbe0078 	sw	s8,120(sp)
80000290:	afbf007c 	sw	ra,124(sp)
80000294:	40046000 	mfc0	a0,c0_status
80000298:	40056800 	mfc0	a1,c0_cause
8000029c:	40067000 	mfc0	a2,c0_epc
800002a0:	00005810 	mfhi	t3
800002a4:	00006012 	mflo	t4
800002a8:	afa60000 	sw	a2,0(sp)
800002ac:	afab0068 	sw	t3,104(sp)
800002b0:	afac006c 	sw	t4,108(sp)
800002b4:	03a03025 	move	a2,sp
800002b8:	23bdffe0 	addi	sp,sp,-32
800002bc:	0c00047a 	jal	800011e8 <do_interrupts>
800002c0:	00000000 	nop
800002c4:	23bd0020 	addi	sp,sp,32

800002c8 <restore_context>:
800002c8:	8fa60000 	lw	a2,0(sp)
800002cc:	8fab0068 	lw	t3,104(sp)
800002d0:	8fac006c 	lw	t4,108(sp)
800002d4:	40867000 	mtc0	a2,c0_epc
800002d8:	01600011 	mthi	t3
800002dc:	01800013 	mtlo	t4
800002e0:	8fa10004 	lw	at,4(sp)
800002e4:	8fa20008 	lw	v0,8(sp)
800002e8:	8fa3000c 	lw	v1,12(sp)
800002ec:	8fa40010 	lw	a0,16(sp)
800002f0:	8fa50014 	lw	a1,20(sp)
800002f4:	8fa60018 	lw	a2,24(sp)
800002f8:	8fa7001c 	lw	a3,28(sp)
800002fc:	8fa80020 	lw	t0,32(sp)
80000300:	8fa90024 	lw	t1,36(sp)
80000304:	8faa0028 	lw	t2,40(sp)
80000308:	8fab002c 	lw	t3,44(sp)
8000030c:	8fac0030 	lw	t4,48(sp)
80000310:	8fad0034 	lw	t5,52(sp)
80000314:	8fae0038 	lw	t6,56(sp)
80000318:	8faf003c 	lw	t7,60(sp)
8000031c:	8fb00040 	lw	s0,64(sp)
80000320:	8fb10044 	lw	s1,68(sp)
80000324:	8fb20048 	lw	s2,72(sp)
80000328:	8fb3004c 	lw	s3,76(sp)
8000032c:	8fb40050 	lw	s4,80(sp)
80000330:	8fb50054 	lw	s5,84(sp)
80000334:	8fb60058 	lw	s6,88(sp)
80000338:	8fb7005c 	lw	s7,92(sp)
8000033c:	8fb80060 	lw	t8,96(sp)
80000340:	8fb90064 	lw	t9,100(sp)
80000344:	8fbc0070 	lw	gp,112(sp)
80000348:	8fbb0074 	lw	k1,116(sp)
8000034c:	8fbe0078 	lw	s8,120(sp)
80000350:	8fbf007c 	lw	ra,124(sp)
80000354:	0360e825 	move	sp,k1
80000358:	42000018 	eret

8000035c <exception_save_context>:
8000035c:	27bdff80 	addiu	sp,sp,-128
80000360:	afa10004 	sw	at,4(sp)
80000364:	afa20008 	sw	v0,8(sp)
80000368:	afa3000c 	sw	v1,12(sp)
8000036c:	afa40010 	sw	a0,16(sp)
80000370:	afa50014 	sw	a1,20(sp)
80000374:	afa60018 	sw	a2,24(sp)
80000378:	afa7001c 	sw	a3,28(sp)
8000037c:	afa80020 	sw	t0,32(sp)
80000380:	afa90024 	sw	t1,36(sp)
80000384:	afaa0028 	sw	t2,40(sp)
80000388:	afab002c 	sw	t3,44(sp)
8000038c:	afac0030 	sw	t4,48(sp)
80000390:	afad0034 	sw	t5,52(sp)
80000394:	afae0038 	sw	t6,56(sp)
80000398:	afaf003c 	sw	t7,60(sp)
8000039c:	afb00040 	sw	s0,64(sp)
800003a0:	afb10044 	sw	s1,68(sp)
800003a4:	afb20048 	sw	s2,72(sp)
800003a8:	afb3004c 	sw	s3,76(sp)
800003ac:	afb40050 	sw	s4,80(sp)
800003b0:	afb50054 	sw	s5,84(sp)
800003b4:	afb60058 	sw	s6,88(sp)
800003b8:	afb7005c 	sw	s7,92(sp)
800003bc:	afb80060 	sw	t8,96(sp)
800003c0:	afb90064 	sw	t9,100(sp)
800003c4:	afbc0070 	sw	gp,112(sp)
800003c8:	afbb0074 	sw	k1,116(sp)
800003cc:	afbe0078 	sw	s8,120(sp)
800003d0:	afbf007c 	sw	ra,124(sp)
800003d4:	40046000 	mfc0	a0,c0_status
800003d8:	40056800 	mfc0	a1,c0_cause
800003dc:	40067000 	mfc0	a2,c0_epc
800003e0:	00005810 	mfhi	t3
800003e4:	00006012 	mflo	t4
800003e8:	afa60000 	sw	a2,0(sp)
800003ec:	afab0068 	sw	t3,104(sp)
800003f0:	afac006c 	sw	t4,108(sp)
800003f4:	03a03025 	move	a2,sp
800003f8:	23bdffe0 	addi	sp,sp,-32
800003fc:	0c000405 	jal	80001014 <do_exceptions>
80000400:	00000000 	nop
80000404:	23bd0020 	addi	sp,sp,32
80000408:	080000b2 	j	800002c8 <restore_context>
8000040c:	00000000 	nop
	...

80001000 <start>:
80001000:	3c1d8100 3c1c8001 279cfcd0 0800050e     ...<...<...'....
80001010:	00000000                                ....

80001014 <do_exceptions>:
80001014:	27bdffe0 	addiu	sp,sp,-32
80001018:	afbf001c 	sw	ra,28(sp)
8000101c:	afbe0018 	sw	s8,24(sp)
80001020:	03a0f025 	move	s8,sp
80001024:	afc40020 	sw	a0,32(s8)
80001028:	afc50024 	sw	a1,36(s8)
8000102c:	afc60028 	sw	a2,40(s8)
80001030:	8fc20024 	lw	v0,36(s8)
80001034:	00021082 	srl	v0,v0,0x2
80001038:	afc20010 	sw	v0,16(s8)
8000103c:	8fc20010 	lw	v0,16(s8)
80001040:	3042001f 	andi	v0,v0,0x1f
80001044:	afc20010 	sw	v0,16(s8)
80001048:	3c028000 	lui	v0,0x8000
8000104c:	8fc30010 	lw	v1,16(s8)
80001050:	00031880 	sll	v1,v1,0x2
80001054:	24427e74 	addiu	v0,v0,32372
80001058:	00621021 	addu	v0,v1,v0
8000105c:	8c420000 	lw	v0,0(v0)
80001060:	1040000e 	beqz	v0,8000109c <do_exceptions+0x88>
80001064:	00000000 	nop
80001068:	3c028000 	lui	v0,0x8000
8000106c:	8fc30010 	lw	v1,16(s8)
80001070:	00031880 	sll	v1,v1,0x2
80001074:	24427e74 	addiu	v0,v0,32372
80001078:	00621021 	addu	v0,v1,v0
8000107c:	8c420000 	lw	v0,0(v0)
80001080:	8fc40020 	lw	a0,32(s8)
80001084:	8fc50024 	lw	a1,36(s8)
80001088:	8fc60028 	lw	a2,40(s8)
8000108c:	0040f809 	jalr	v0
80001090:	00000000 	nop
80001094:	10000003 	b	800010a4 <do_exceptions+0x90>
80001098:	00000000 	nop
8000109c:	1000ffff 	b	8000109c <do_exceptions+0x88>
800010a0:	00000000 	nop
800010a4:	03c0e825 	move	sp,s8
800010a8:	8fbf001c 	lw	ra,28(sp)
800010ac:	8fbe0018 	lw	s8,24(sp)
800010b0:	27bd0020 	addiu	sp,sp,32
800010b4:	03e00008 	jr	ra
800010b8:	00000000 	nop

800010bc <register_exception_handler>:
800010bc:	27bdfff8 	addiu	sp,sp,-8
800010c0:	afbe0004 	sw	s8,4(sp)
800010c4:	03a0f025 	move	s8,sp
800010c8:	afc40008 	sw	a0,8(s8)
800010cc:	afc5000c 	sw	a1,12(s8)
800010d0:	8fc20008 	lw	v0,8(s8)
800010d4:	3042001f 	andi	v0,v0,0x1f
800010d8:	afc20008 	sw	v0,8(s8)
800010dc:	3c028000 	lui	v0,0x8000
800010e0:	8fc30008 	lw	v1,8(s8)
800010e4:	00031880 	sll	v1,v1,0x2
800010e8:	24427e74 	addiu	v0,v0,32372
800010ec:	00621021 	addu	v0,v1,v0
800010f0:	8fc3000c 	lw	v1,12(s8)
800010f4:	ac430000 	sw	v1,0(v0)
800010f8:	03c0e825 	move	sp,s8
800010fc:	8fbe0004 	lw	s8,4(sp)
80001100:	27bd0008 	addiu	sp,sp,8
80001104:	03e00008 	jr	ra
80001108:	00000000 	nop

8000110c <init_exception>:
8000110c:	27bdfff8 	addiu	sp,sp,-8
80001110:	afbe0004 	sw	s8,4(sp)
80001114:	03a0f025 	move	s8,sp
80001118:	40806000 	mtc0	zero,c0_status
8000111c:	3c080080 	lui	t0,0x80
80001120:	40886800 	mtc0	t0,c0_cause
80001124:	03c0e825 	move	sp,s8
80001128:	8fbe0004 	lw	s8,4(sp)
8000112c:	27bd0008 	addiu	sp,sp,8
80001130:	03e00008 	jr	ra
80001134:	00000000 	nop

80001138 <init_interrupts>:
80001138:	27bdfff0 	addiu	sp,sp,-16
8000113c:	afbe000c 	sw	s8,12(sp)
80001140:	03a0f025 	move	s8,sp
80001144:	40086000 	mfc0	t0,c0_status
80001148:	35080001 	ori	t0,t0,0x1
8000114c:	01001025 	move	v0,t0
80001150:	40886000 	mtc0	t0,c0_status
80001154:	afc20000 	sw	v0,0(s8)
80001158:	03c0e825 	move	sp,s8
8000115c:	8fbe000c 	lw	s8,12(sp)
80001160:	27bd0010 	addiu	sp,sp,16
80001164:	03e00008 	jr	ra
80001168:	00000000 	nop

8000116c <enable_interrupts>:
8000116c:	27bdfff0 	addiu	sp,sp,-16
80001170:	afbe000c 	sw	s8,12(sp)
80001174:	03a0f025 	move	s8,sp
80001178:	afc00000 	sw	zero,0(s8)
8000117c:	40086000 	mfc0	t0,c0_status
80001180:	31020001 	andi	v0,t0,0x1
80001184:	35080001 	ori	t0,t0,0x1
80001188:	40886000 	mtc0	t0,c0_status
8000118c:	afc20000 	sw	v0,0(s8)
80001190:	8fc20000 	lw	v0,0(s8)
80001194:	03c0e825 	move	sp,s8
80001198:	8fbe000c 	lw	s8,12(sp)
8000119c:	27bd0010 	addiu	sp,sp,16
800011a0:	03e00008 	jr	ra
800011a4:	00000000 	nop

800011a8 <disable_interrupts>:
800011a8:	27bdfff0 	addiu	sp,sp,-16
800011ac:	afbe000c 	sw	s8,12(sp)
800011b0:	03a0f025 	move	s8,sp
800011b4:	afc00000 	sw	zero,0(s8)
800011b8:	40086000 	mfc0	t0,c0_status
800011bc:	31020001 	andi	v0,t0,0x1
800011c0:	2409fffe 	li	t1,-2
800011c4:	01094024 	and	t0,t0,t1
800011c8:	40886000 	mtc0	t0,c0_status
800011cc:	afc20000 	sw	v0,0(s8)
800011d0:	8fc20000 	lw	v0,0(s8)
800011d4:	03c0e825 	move	sp,s8
800011d8:	8fbe000c 	lw	s8,12(sp)
800011dc:	27bd0010 	addiu	sp,sp,16
800011e0:	03e00008 	jr	ra
800011e4:	00000000 	nop

800011e8 <do_interrupts>:
800011e8:	27bdffe0 	addiu	sp,sp,-32
800011ec:	afbf001c 	sw	ra,28(sp)
800011f0:	afbe0018 	sw	s8,24(sp)
800011f4:	03a0f025 	move	s8,sp
800011f8:	afc40020 	sw	a0,32(s8)
800011fc:	afc50024 	sw	a1,36(s8)
80001200:	afc60028 	sw	a2,40(s8)
80001204:	8fc20024 	lw	v0,36(s8)
80001208:	00021202 	srl	v0,v0,0x8
8000120c:	afc20014 	sw	v0,20(s8)
80001210:	afc00010 	sw	zero,16(s8)
80001214:	1000001e 	b	80001290 <do_interrupts+0xa8>
80001218:	00000000 	nop
8000121c:	8fc20014 	lw	v0,20(s8)
80001220:	30420001 	andi	v0,v0,0x1
80001224:	10400014 	beqz	v0,80001278 <do_interrupts+0x90>
80001228:	00000000 	nop
8000122c:	3c028000 	lui	v0,0x8000
80001230:	8fc30010 	lw	v1,16(s8)
80001234:	00031880 	sll	v1,v1,0x2
80001238:	24427ef4 	addiu	v0,v0,32500
8000123c:	00621021 	addu	v0,v1,v0
80001240:	8c420000 	lw	v0,0(v0)
80001244:	1040000c 	beqz	v0,80001278 <do_interrupts+0x90>
80001248:	00000000 	nop
8000124c:	3c028000 	lui	v0,0x8000
80001250:	8fc30010 	lw	v1,16(s8)
80001254:	00031880 	sll	v1,v1,0x2
80001258:	24427ef4 	addiu	v0,v0,32500
8000125c:	00621021 	addu	v0,v1,v0
80001260:	8c420000 	lw	v0,0(v0)
80001264:	8fc40020 	lw	a0,32(s8)
80001268:	8fc50024 	lw	a1,36(s8)
8000126c:	8fc60028 	lw	a2,40(s8)
80001270:	0040f809 	jalr	v0
80001274:	00000000 	nop
80001278:	8fc20014 	lw	v0,20(s8)
8000127c:	00021043 	sra	v0,v0,0x1
80001280:	afc20014 	sw	v0,20(s8)
80001284:	8fc20010 	lw	v0,16(s8)
80001288:	24420001 	addiu	v0,v0,1
8000128c:	afc20010 	sw	v0,16(s8)
80001290:	8fc20010 	lw	v0,16(s8)
80001294:	28420008 	slti	v0,v0,8
80001298:	1440ffe0 	bnez	v0,8000121c <do_interrupts+0x34>
8000129c:	00000000 	nop
800012a0:	03c0e825 	move	sp,s8
800012a4:	8fbf001c 	lw	ra,28(sp)
800012a8:	8fbe0018 	lw	s8,24(sp)
800012ac:	27bd0020 	addiu	sp,sp,32
800012b0:	03e00008 	jr	ra
800012b4:	00000000 	nop

800012b8 <register_interrupt_handler>:
800012b8:	27bdfff8 	addiu	sp,sp,-8
800012bc:	afbe0004 	sw	s8,4(sp)
800012c0:	03a0f025 	move	s8,sp
800012c4:	afc40008 	sw	a0,8(s8)
800012c8:	afc5000c 	sw	a1,12(s8)
800012cc:	8fc20008 	lw	v0,8(s8)
800012d0:	30420007 	andi	v0,v0,0x7
800012d4:	afc20008 	sw	v0,8(s8)
800012d8:	3c028000 	lui	v0,0x8000
800012dc:	8fc30008 	lw	v1,8(s8)
800012e0:	00031880 	sll	v1,v1,0x2
800012e4:	24427ef4 	addiu	v0,v0,32500
800012e8:	00621021 	addu	v0,v1,v0
800012ec:	8fc3000c 	lw	v1,12(s8)
800012f0:	ac430000 	sw	v1,0(v0)
800012f4:	8fc20008 	lw	v0,8(s8)
800012f8:	24420008 	addiu	v0,v0,8
800012fc:	24030001 	li	v1,1
80001300:	00431004 	sllv	v0,v1,v0
80001304:	afc20008 	sw	v0,8(s8)
80001308:	40086000 	mfc0	t0,c0_status
8000130c:	01024025 	or	t0,t0,v0
80001310:	40886000 	mtc0	t0,c0_status
80001314:	afc20008 	sw	v0,8(s8)
80001318:	03c0e825 	move	sp,s8
8000131c:	8fbe0004 	lw	s8,4(sp)
80001320:	27bd0008 	addiu	sp,sp,8
80001324:	03e00008 	jr	ra
80001328:	00000000 	nop

8000132c <get_phymm_size>:
8000132c:	27bdfff8 	addiu	sp,sp,-8
80001330:	afbe0004 	sw	s8,4(sp)
80001334:	03a0f025 	move	s8,sp
80001338:	3c020800 	lui	v0,0x800
8000133c:	03c0e825 	move	sp,s8
80001340:	8fbe0004 	lw	s8,4(sp)
80001344:	27bd0008 	addiu	sp,sp,8
80001348:	03e00008 	jr	ra
8000134c:	00000000 	nop

80001350 <init_pgtable>:
80001350:	27bdfff8 	addiu	sp,sp,-8
80001354:	afbe0004 	sw	s8,4(sp)
80001358:	03a0f025 	move	s8,sp
8000135c:	03c0e825 	move	sp,s8
80001360:	8fbe0004 	lw	s8,4(sp)
80001364:	27bd0008 	addiu	sp,sp,8
80001368:	03e00008 	jr	ra
8000136c:	00000000 	nop

80001370 <init_fs>:
80001370:	27bdfff8 	addiu	sp,sp,-8
80001374:	afbe0004 	sw	s8,4(sp)
80001378:	03a0f025 	move	s8,sp
8000137c:	03c0e825 	move	sp,s8
80001380:	8fbe0004 	lw	s8,4(sp)
80001384:	27bd0008 	addiu	sp,sp,8
80001388:	03e00008 	jr	ra
8000138c:	00000000 	nop

80001390 <init_pc>:
80001390:	27bdfff8 	addiu	sp,sp,-8
80001394:	afbe0004 	sw	s8,4(sp)
80001398:	03a0f025 	move	s8,sp
8000139c:	03c0e825 	move	sp,s8
800013a0:	8fbe0004 	lw	s8,4(sp)
800013a4:	27bd0008 	addiu	sp,sp,8
800013a8:	03e00008 	jr	ra
800013ac:	00000000 	nop

800013b0 <machine_info>:
800013b0:	27bdffe0 	addiu	sp,sp,-32
800013b4:	afbf001c 	sw	ra,28(sp)
800013b8:	afbe0018 	sw	s8,24(sp)
800013bc:	03a0f025 	move	s8,sp
800013c0:	3c028000 	lui	v0,0x8000
800013c4:	24447484 	addiu	a0,v0,29828
800013c8:	3c028000 	lui	v0,0x8000
800013cc:	2445748c 	addiu	a1,v0,29836
800013d0:	0c00152c 	jal	800054b0 <kernel_printf>
800013d4:	00000000 	nop
800013d8:	8f82809c 	lw	v0,-32612(gp)
800013dc:	afc20010 	sw	v0,16(s8)
800013e0:	8f828098 	lw	v0,-32616(gp)
800013e4:	afc20014 	sw	v0,20(s8)
800013e8:	2402001d 	li	v0,29
800013ec:	af82809c 	sw	v0,-32612(gp)
800013f0:	3c028000 	lui	v0,0x8000
800013f4:	24447498 	addiu	a0,v0,29848
800013f8:	3c028000 	lui	v0,0x8000
800013fc:	2445749c 	addiu	a1,v0,29852
80001400:	0c00152c 	jal	800054b0 <kernel_printf>
80001404:	00000000 	nop
80001408:	8fc20010 	lw	v0,16(s8)
8000140c:	af82809c 	sw	v0,-32612(gp)
80001410:	8fc20014 	lw	v0,20(s8)
80001414:	af828098 	sw	v0,-32616(gp)
80001418:	0c0012a1 	jal	80004a84 <kernel_set_cursor>
8000141c:	00000000 	nop
80001420:	03c0e825 	move	sp,s8
80001424:	8fbf001c 	lw	ra,28(sp)
80001428:	8fbe0018 	lw	s8,24(sp)
8000142c:	27bd0020 	addiu	sp,sp,32
80001430:	03e00008 	jr	ra
80001434:	00000000 	nop

80001438 <init_kernel>:
80001438:	27bdffe8 	addiu	sp,sp,-24
8000143c:	afbf0014 	sw	ra,20(sp)
80001440:	afbe0010 	sw	s8,16(sp)
80001444:	03a0f025 	move	s8,sp
80001448:	2404001f 	li	a0,31
8000144c:	0c0012c9 	jal	80004b24 <kernel_clear_screen>
80001450:	00000000 	nop
80001454:	0c000443 	jal	8000110c <init_exception>
80001458:	00000000 	nop
8000145c:	0c0004d4 	jal	80001350 <init_pgtable>
80001460:	00000000 	nop
80001464:	0c0012b5 	jal	80004ad4 <init_vga>
80001468:	00000000 	nop
8000146c:	0c001566 	jal	80005598 <init_ps2>
80001470:	00000000 	nop
80001474:	0c00183a 	jal	800060e8 <init_time>
80001478:	00000000 	nop
8000147c:	24040002 	li	a0,2
80001480:	3c028000 	lui	v0,0x8000
80001484:	244574d4 	addiu	a1,v0,29908
80001488:	0c001971 	jal	800065c4 <log>
8000148c:	00000000 	nop
80001490:	0c0006fd 	jal	80001bf4 <init_bootmm>
80001494:	00000000 	nop
80001498:	00002025 	move	a0,zero
8000149c:	3c028000 	lui	v0,0x8000
800014a0:	244574e4 	addiu	a1,v0,29924
800014a4:	0c001971 	jal	800065c4 <log>
800014a8:	00000000 	nop
800014ac:	0c000ef2 	jal	80003bc8 <init_buddy>
800014b0:	00000000 	nop
800014b4:	00002025 	move	a0,zero
800014b8:	3c028000 	lui	v0,0x8000
800014bc:	244574f0 	addiu	a1,v0,29936
800014c0:	0c001971 	jal	800065c4 <log>
800014c4:	00000000 	nop
800014c8:	0c000ab1 	jal	80002ac4 <init_slab>
800014cc:	00000000 	nop
800014d0:	00002025 	move	a0,zero
800014d4:	3c028000 	lui	v0,0x8000
800014d8:	244574f8 	addiu	a1,v0,29944
800014dc:	0c001971 	jal	800065c4 <log>
800014e0:	00000000 	nop
800014e4:	24040003 	li	a0,3
800014e8:	3c028000 	lui	v0,0x8000
800014ec:	244574d4 	addiu	a1,v0,29908
800014f0:	0c001971 	jal	800065c4 <log>
800014f4:	00000000 	nop
800014f8:	24040002 	li	a0,2
800014fc:	3c028000 	lui	v0,0x8000
80001500:	24457500 	addiu	a1,v0,29952
80001504:	0c001971 	jal	800065c4 <log>
80001508:	00000000 	nop
8000150c:	0c0004dc 	jal	80001370 <init_fs>
80001510:	00000000 	nop
80001514:	24040003 	li	a0,3
80001518:	3c028000 	lui	v0,0x8000
8000151c:	24457500 	addiu	a1,v0,29952
80001520:	0c001971 	jal	800065c4 <log>
80001524:	00000000 	nop
80001528:	24040002 	li	a0,2
8000152c:	3c028000 	lui	v0,0x8000
80001530:	24457510 	addiu	a1,v0,29968
80001534:	0c001971 	jal	800065c4 <log>
80001538:	00000000 	nop
8000153c:	0c0016c5 	jal	80005b14 <init_syscall>
80001540:	00000000 	nop
80001544:	24040003 	li	a0,3
80001548:	3c028000 	lui	v0,0x8000
8000154c:	24457510 	addiu	a1,v0,29968
80001550:	0c001971 	jal	800065c4 <log>
80001554:	00000000 	nop
80001558:	24040002 	li	a0,2
8000155c:	3c028000 	lui	v0,0x8000
80001560:	24457520 	addiu	a1,v0,29984
80001564:	0c001971 	jal	800065c4 <log>
80001568:	00000000 	nop
8000156c:	0c0004e4 	jal	80001390 <init_pc>
80001570:	00000000 	nop
80001574:	24040003 	li	a0,3
80001578:	3c028000 	lui	v0,0x8000
8000157c:	24457520 	addiu	a1,v0,29984
80001580:	0c001971 	jal	800065c4 <log>
80001584:	00000000 	nop
80001588:	24040002 	li	a0,2
8000158c:	3c028000 	lui	v0,0x8000
80001590:	24457538 	addiu	a1,v0,30008
80001594:	0c001971 	jal	800065c4 <log>
80001598:	00000000 	nop
8000159c:	0c00044e 	jal	80001138 <init_interrupts>
800015a0:	00000000 	nop
800015a4:	24040003 	li	a0,3
800015a8:	3c028000 	lui	v0,0x8000
800015ac:	24457538 	addiu	a1,v0,30008
800015b0:	0c001971 	jal	800065c4 <log>
800015b4:	00000000 	nop
800015b8:	0c0004ec 	jal	800013b0 <machine_info>
800015bc:	00000000 	nop
800015c0:	8f82801c 	lw	v0,-32740(gp)
800015c4:	3c031122 	lui	v1,0x1122
800015c8:	34633344 	ori	v1,v1,0x3344
800015cc:	ac430000 	sw	v1,0(v0)
800015d0:	0c001a11 	jal	80006844 <ps>
800015d4:	00000000 	nop
800015d8:	03c0e825 	move	sp,s8
800015dc:	8fbf0014 	lw	ra,20(sp)
800015e0:	8fbe0010 	lw	s8,16(sp)
800015e4:	27bd0018 	addiu	sp,sp,24
800015e8:	03e00008 	jr	ra
800015ec:	00000000 	nop

800015f0 <set_mminfo>:
800015f0:	27bdfff8 	addiu	sp,sp,-8
800015f4:	afbe0004 	sw	s8,4(sp)
800015f8:	03a0f025 	move	s8,sp
800015fc:	afc40008 	sw	a0,8(s8)
80001600:	afc5000c 	sw	a1,12(s8)
80001604:	afc60010 	sw	a2,16(s8)
80001608:	afc70014 	sw	a3,20(s8)
8000160c:	8fc20008 	lw	v0,8(s8)
80001610:	8fc3000c 	lw	v1,12(s8)
80001614:	ac430000 	sw	v1,0(v0)
80001618:	8fc20008 	lw	v0,8(s8)
8000161c:	8fc30010 	lw	v1,16(s8)
80001620:	ac430004 	sw	v1,4(v0)
80001624:	8fc20008 	lw	v0,8(s8)
80001628:	8fc30014 	lw	v1,20(s8)
8000162c:	ac430008 	sw	v1,8(v0)
80001630:	03c0e825 	move	sp,s8
80001634:	8fbe0004 	lw	s8,4(sp)
80001638:	27bd0008 	addiu	sp,sp,8
8000163c:	03e00008 	jr	ra
80001640:	00000000 	nop

80001644 <insert_mminfo>:
80001644:	27bdffe0 	addiu	sp,sp,-32
80001648:	afbf001c 	sw	ra,28(sp)
8000164c:	afbe0018 	sw	s8,24(sp)
80001650:	03a0f025 	move	s8,sp
80001654:	afc40020 	sw	a0,32(s8)
80001658:	afc50024 	sw	a1,36(s8)
8000165c:	afc60028 	sw	a2,40(s8)
80001660:	afc7002c 	sw	a3,44(s8)
80001664:	afc00010 	sw	zero,16(s8)
80001668:	1000008c 	b	8000189c <insert_mminfo+0x258>
8000166c:	00000000 	nop
80001670:	8fc30020 	lw	v1,32(s8)
80001674:	8fc20010 	lw	v0,16(s8)
80001678:	00021080 	sll	v0,v0,0x2
8000167c:	00022080 	sll	a0,v0,0x2
80001680:	00821023 	subu	v0,a0,v0
80001684:	00621021 	addu	v0,v1,v0
80001688:	8c420020 	lw	v0,32(v0)
8000168c:	2c420001 	sltiu	v0,v0,1
80001690:	304200ff 	andi	v0,v0,0xff
80001694:	00401825 	move	v1,v0
80001698:	8fc2002c 	lw	v0,44(s8)
8000169c:	1062007c 	beq	v1,v0,80001890 <insert_mminfo+0x24c>
800016a0:	00000000 	nop
800016a4:	8fc30020 	lw	v1,32(s8)
800016a8:	8fc20010 	lw	v0,16(s8)
800016ac:	00021080 	sll	v0,v0,0x2
800016b0:	00022080 	sll	a0,v0,0x2
800016b4:	00821023 	subu	v0,a0,v0
800016b8:	00621021 	addu	v0,v1,v0
800016bc:	8c43001c 	lw	v1,28(v0)
800016c0:	8fc20024 	lw	v0,36(s8)
800016c4:	2442ffff 	addiu	v0,v0,-1
800016c8:	1462004d 	bne	v1,v0,80001800 <insert_mminfo+0x1bc>
800016cc:	00000000 	nop
800016d0:	8fc20010 	lw	v0,16(s8)
800016d4:	24430001 	addiu	v1,v0,1
800016d8:	8fc20020 	lw	v0,32(s8)
800016dc:	8c420014 	lw	v0,20(v0)
800016e0:	0062102b 	sltu	v0,v1,v0
800016e4:	1040003b 	beqz	v0,800017d4 <insert_mminfo+0x190>
800016e8:	00000000 	nop
800016ec:	8fc20010 	lw	v0,16(s8)
800016f0:	24420001 	addiu	v0,v0,1
800016f4:	8fc30020 	lw	v1,32(s8)
800016f8:	00021080 	sll	v0,v0,0x2
800016fc:	00022080 	sll	a0,v0,0x2
80001700:	00821023 	subu	v0,a0,v0
80001704:	00621021 	addu	v0,v1,v0
80001708:	8c430020 	lw	v1,32(v0)
8000170c:	8fc2002c 	lw	v0,44(s8)
80001710:	1062000c 	beq	v1,v0,80001744 <insert_mminfo+0x100>
80001714:	00000000 	nop
80001718:	8fc30020 	lw	v1,32(s8)
8000171c:	8fc20010 	lw	v0,16(s8)
80001720:	00021080 	sll	v0,v0,0x2
80001724:	00022080 	sll	a0,v0,0x2
80001728:	00821023 	subu	v0,a0,v0
8000172c:	00621021 	addu	v0,v1,v0
80001730:	8fc30028 	lw	v1,40(s8)
80001734:	ac43001c 	sw	v1,28(v0)
80001738:	24020002 	li	v0,2
8000173c:	1000007b 	b	8000192c <insert_mminfo+0x2e8>
80001740:	00000000 	nop
80001744:	8fc20010 	lw	v0,16(s8)
80001748:	24420001 	addiu	v0,v0,1
8000174c:	8fc30020 	lw	v1,32(s8)
80001750:	00021080 	sll	v0,v0,0x2
80001754:	00022080 	sll	a0,v0,0x2
80001758:	00821023 	subu	v0,a0,v0
8000175c:	00621021 	addu	v0,v1,v0
80001760:	8c420018 	lw	v0,24(v0)
80001764:	2443ffff 	addiu	v1,v0,-1
80001768:	8fc20028 	lw	v0,40(s8)
8000176c:	14620024 	bne	v1,v0,80001800 <insert_mminfo+0x1bc>
80001770:	00000000 	nop
80001774:	8fc20010 	lw	v0,16(s8)
80001778:	24420001 	addiu	v0,v0,1
8000177c:	8fc30020 	lw	v1,32(s8)
80001780:	00021080 	sll	v0,v0,0x2
80001784:	00022080 	sll	a0,v0,0x2
80001788:	00821023 	subu	v0,a0,v0
8000178c:	00621021 	addu	v0,v1,v0
80001790:	8c43001c 	lw	v1,28(v0)
80001794:	8fc40020 	lw	a0,32(s8)
80001798:	8fc20010 	lw	v0,16(s8)
8000179c:	00021080 	sll	v0,v0,0x2
800017a0:	00022880 	sll	a1,v0,0x2
800017a4:	00a21023 	subu	v0,a1,v0
800017a8:	00821021 	addu	v0,a0,v0
800017ac:	ac43001c 	sw	v1,28(v0)
800017b0:	8fc20010 	lw	v0,16(s8)
800017b4:	24420001 	addiu	v0,v0,1
800017b8:	8fc40020 	lw	a0,32(s8)
800017bc:	00402825 	move	a1,v0
800017c0:	0c0006be 	jal	80001af8 <remove_mminfo>
800017c4:	00000000 	nop
800017c8:	24020004 	li	v0,4
800017cc:	10000057 	b	8000192c <insert_mminfo+0x2e8>
800017d0:	00000000 	nop
800017d4:	8fc30020 	lw	v1,32(s8)
800017d8:	8fc20010 	lw	v0,16(s8)
800017dc:	00021080 	sll	v0,v0,0x2
800017e0:	00022080 	sll	a0,v0,0x2
800017e4:	00821023 	subu	v0,a0,v0
800017e8:	00621021 	addu	v0,v1,v0
800017ec:	8fc30028 	lw	v1,40(s8)
800017f0:	ac43001c 	sw	v1,28(v0)
800017f4:	24020002 	li	v0,2
800017f8:	1000004c 	b	8000192c <insert_mminfo+0x2e8>
800017fc:	00000000 	nop
80001800:	8fc30020 	lw	v1,32(s8)
80001804:	8fc20010 	lw	v0,16(s8)
80001808:	00021080 	sll	v0,v0,0x2
8000180c:	00022080 	sll	a0,v0,0x2
80001810:	00821023 	subu	v0,a0,v0
80001814:	00621021 	addu	v0,v1,v0
80001818:	8c420018 	lw	v0,24(v0)
8000181c:	2443ffff 	addiu	v1,v0,-1
80001820:	8fc20028 	lw	v0,40(s8)
80001824:	1462001a 	bne	v1,v0,80001890 <insert_mminfo+0x24c>
80001828:	00000000 	nop
8000182c:	8fc30020 	lw	v1,32(s8)
80001830:	8fc20010 	lw	v0,16(s8)
80001834:	00021080 	sll	v0,v0,0x2
80001838:	00022080 	sll	a0,v0,0x2
8000183c:	00821023 	subu	v0,a0,v0
80001840:	00621021 	addu	v0,v1,v0
80001844:	8c430020 	lw	v1,32(v0)
80001848:	3c028000 	lui	v0,0x8000
8000184c:	244475b8 	addiu	a0,v0,30136
80001850:	8fc50010 	lw	a1,16(s8)
80001854:	00603025 	move	a2,v1
80001858:	8fc7002c 	lw	a3,44(s8)
8000185c:	0c00152c 	jal	800054b0 <kernel_printf>
80001860:	00000000 	nop
80001864:	8fc30020 	lw	v1,32(s8)
80001868:	8fc20010 	lw	v0,16(s8)
8000186c:	00021080 	sll	v0,v0,0x2
80001870:	00022080 	sll	a0,v0,0x2
80001874:	00821023 	subu	v0,a0,v0
80001878:	00621021 	addu	v0,v1,v0
8000187c:	8fc30024 	lw	v1,36(s8)
80001880:	ac430018 	sw	v1,24(v0)
80001884:	24020003 	li	v0,3
80001888:	10000028 	b	8000192c <insert_mminfo+0x2e8>
8000188c:	00000000 	nop
80001890:	8fc20010 	lw	v0,16(s8)
80001894:	24420001 	addiu	v0,v0,1
80001898:	afc20010 	sw	v0,16(s8)
8000189c:	8fc20020 	lw	v0,32(s8)
800018a0:	8c430014 	lw	v1,20(v0)
800018a4:	8fc20010 	lw	v0,16(s8)
800018a8:	0043102b 	sltu	v0,v0,v1
800018ac:	1440ff70 	bnez	v0,80001670 <insert_mminfo+0x2c>
800018b0:	00000000 	nop
800018b4:	8fc20020 	lw	v0,32(s8)
800018b8:	8c420014 	lw	v0,20(v0)
800018bc:	2c42000a 	sltiu	v0,v0,10
800018c0:	14400004 	bnez	v0,800018d4 <insert_mminfo+0x290>
800018c4:	00000000 	nop
800018c8:	00001025 	move	v0,zero
800018cc:	10000017 	b	8000192c <insert_mminfo+0x2e8>
800018d0:	00000000 	nop
800018d4:	8fc20020 	lw	v0,32(s8)
800018d8:	8c420014 	lw	v0,20(v0)
800018dc:	00401825 	move	v1,v0
800018e0:	00031080 	sll	v0,v1,0x2
800018e4:	00401825 	move	v1,v0
800018e8:	00031080 	sll	v0,v1,0x2
800018ec:	00431023 	subu	v0,v0,v1
800018f0:	24420018 	addiu	v0,v0,24
800018f4:	8fc30020 	lw	v1,32(s8)
800018f8:	00621021 	addu	v0,v1,v0
800018fc:	00402025 	move	a0,v0
80001900:	8fc50024 	lw	a1,36(s8)
80001904:	8fc60028 	lw	a2,40(s8)
80001908:	8fc7002c 	lw	a3,44(s8)
8000190c:	0c00057c 	jal	800015f0 <set_mminfo>
80001910:	00000000 	nop
80001914:	8fc20020 	lw	v0,32(s8)
80001918:	8c420014 	lw	v0,20(v0)
8000191c:	24430001 	addiu	v1,v0,1
80001920:	8fc20020 	lw	v0,32(s8)
80001924:	ac430014 	sw	v1,20(v0)
80001928:	24020001 	li	v0,1
8000192c:	03c0e825 	move	sp,s8
80001930:	8fbf001c 	lw	ra,28(sp)
80001934:	8fbe0018 	lw	s8,24(sp)
80001938:	27bd0020 	addiu	sp,sp,32
8000193c:	03e00008 	jr	ra
80001940:	00000000 	nop

80001944 <split_mminfo>:
80001944:	27bdffe8 	addiu	sp,sp,-24
80001948:	afbe0014 	sw	s8,20(sp)
8000194c:	03a0f025 	move	s8,sp
80001950:	afc40018 	sw	a0,24(s8)
80001954:	afc5001c 	sw	a1,28(s8)
80001958:	afc60020 	sw	a2,32(s8)
8000195c:	8fc30018 	lw	v1,24(s8)
80001960:	8fc2001c 	lw	v0,28(s8)
80001964:	00021080 	sll	v0,v0,0x2
80001968:	00022080 	sll	a0,v0,0x2
8000196c:	00821023 	subu	v0,a0,v0
80001970:	00621021 	addu	v0,v1,v0
80001974:	8c420018 	lw	v0,24(v0)
80001978:	afc20004 	sw	v0,4(s8)
8000197c:	8fc30018 	lw	v1,24(s8)
80001980:	8fc2001c 	lw	v0,28(s8)
80001984:	00021080 	sll	v0,v0,0x2
80001988:	00022080 	sll	a0,v0,0x2
8000198c:	00821023 	subu	v0,a0,v0
80001990:	00621021 	addu	v0,v1,v0
80001994:	8c42001c 	lw	v0,28(v0)
80001998:	afc20008 	sw	v0,8(s8)
8000199c:	8fc30020 	lw	v1,32(s8)
800019a0:	2402f000 	li	v0,-4096
800019a4:	00621024 	and	v0,v1,v0
800019a8:	afc20020 	sw	v0,32(s8)
800019ac:	8fc30020 	lw	v1,32(s8)
800019b0:	8fc20004 	lw	v0,4(s8)
800019b4:	0043102b 	sltu	v0,v0,v1
800019b8:	10400006 	beqz	v0,800019d4 <split_mminfo+0x90>
800019bc:	00000000 	nop
800019c0:	8fc30020 	lw	v1,32(s8)
800019c4:	8fc20008 	lw	v0,8(s8)
800019c8:	0062102b 	sltu	v0,v1,v0
800019cc:	14400004 	bnez	v0,800019e0 <split_mminfo+0x9c>
800019d0:	00000000 	nop
800019d4:	00001025 	move	v0,zero
800019d8:	10000042 	b	80001ae4 <split_mminfo+0x1a0>
800019dc:	00000000 	nop
800019e0:	8fc20018 	lw	v0,24(s8)
800019e4:	8c430014 	lw	v1,20(v0)
800019e8:	2402000a 	li	v0,10
800019ec:	14620004 	bne	v1,v0,80001a00 <split_mminfo+0xbc>
800019f0:	00000000 	nop
800019f4:	00001025 	move	v0,zero
800019f8:	1000003a 	b	80001ae4 <split_mminfo+0x1a0>
800019fc:	00000000 	nop
80001a00:	8fc20018 	lw	v0,24(s8)
80001a04:	8c420014 	lw	v0,20(v0)
80001a08:	2442ffff 	addiu	v0,v0,-1
80001a0c:	afc20000 	sw	v0,0(s8)
80001a10:	10000017 	b	80001a70 <split_mminfo+0x12c>
80001a14:	00000000 	nop
80001a18:	8fc20000 	lw	v0,0(s8)
80001a1c:	24420001 	addiu	v0,v0,1
80001a20:	8fc30018 	lw	v1,24(s8)
80001a24:	00021080 	sll	v0,v0,0x2
80001a28:	00022080 	sll	a0,v0,0x2
80001a2c:	00821023 	subu	v0,a0,v0
80001a30:	00621021 	addu	v0,v1,v0
80001a34:	8fc40018 	lw	a0,24(s8)
80001a38:	8fc30000 	lw	v1,0(s8)
80001a3c:	00031880 	sll	v1,v1,0x2
80001a40:	00032880 	sll	a1,v1,0x2
80001a44:	00a31823 	subu	v1,a1,v1
80001a48:	00831821 	addu	v1,a0,v1
80001a4c:	8c650018 	lw	a1,24(v1)
80001a50:	8c64001c 	lw	a0,28(v1)
80001a54:	8c630020 	lw	v1,32(v1)
80001a58:	ac450018 	sw	a1,24(v0)
80001a5c:	ac44001c 	sw	a0,28(v0)
80001a60:	ac430020 	sw	v1,32(v0)
80001a64:	8fc20000 	lw	v0,0(s8)
80001a68:	2442ffff 	addiu	v0,v0,-1
80001a6c:	afc20000 	sw	v0,0(s8)
80001a70:	8fc30000 	lw	v1,0(s8)
80001a74:	8fc2001c 	lw	v0,28(s8)
80001a78:	0062102b 	sltu	v0,v1,v0
80001a7c:	1040ffe6 	beqz	v0,80001a18 <split_mminfo+0xd4>
80001a80:	00000000 	nop
80001a84:	8fc20020 	lw	v0,32(s8)
80001a88:	2443ffff 	addiu	v1,v0,-1
80001a8c:	8fc40018 	lw	a0,24(s8)
80001a90:	8fc2001c 	lw	v0,28(s8)
80001a94:	00021080 	sll	v0,v0,0x2
80001a98:	00022880 	sll	a1,v0,0x2
80001a9c:	00a21023 	subu	v0,a1,v0
80001aa0:	00821021 	addu	v0,a0,v0
80001aa4:	ac43001c 	sw	v1,28(v0)
80001aa8:	8fc2001c 	lw	v0,28(s8)
80001aac:	24420001 	addiu	v0,v0,1
80001ab0:	8fc30018 	lw	v1,24(s8)
80001ab4:	00021080 	sll	v0,v0,0x2
80001ab8:	00022080 	sll	a0,v0,0x2
80001abc:	00821023 	subu	v0,a0,v0
80001ac0:	00621021 	addu	v0,v1,v0
80001ac4:	8fc30020 	lw	v1,32(s8)
80001ac8:	ac430018 	sw	v1,24(v0)
80001acc:	8fc20018 	lw	v0,24(s8)
80001ad0:	8c420014 	lw	v0,20(v0)
80001ad4:	24430001 	addiu	v1,v0,1
80001ad8:	8fc20018 	lw	v0,24(s8)
80001adc:	ac430014 	sw	v1,20(v0)
80001ae0:	24020001 	li	v0,1
80001ae4:	03c0e825 	move	sp,s8
80001ae8:	8fbe0014 	lw	s8,20(sp)
80001aec:	27bd0018 	addiu	sp,sp,24
80001af0:	03e00008 	jr	ra
80001af4:	00000000 	nop

80001af8 <remove_mminfo>:
80001af8:	27bdfff0 	addiu	sp,sp,-16
80001afc:	afbe000c 	sw	s8,12(sp)
80001b00:	03a0f025 	move	s8,sp
80001b04:	afc40010 	sw	a0,16(s8)
80001b08:	afc50014 	sw	a1,20(s8)
80001b0c:	8fc20010 	lw	v0,16(s8)
80001b10:	8c430014 	lw	v1,20(v0)
80001b14:	8fc20014 	lw	v0,20(s8)
80001b18:	0043102b 	sltu	v0,v0,v1
80001b1c:	14400003 	bnez	v0,80001b2c <remove_mminfo+0x34>
80001b20:	00000000 	nop
80001b24:	1000002e 	b	80001be0 <remove_mminfo+0xe8>
80001b28:	00000000 	nop
80001b2c:	8fc20014 	lw	v0,20(s8)
80001b30:	24430001 	addiu	v1,v0,1
80001b34:	8fc20010 	lw	v0,16(s8)
80001b38:	8c420014 	lw	v0,20(v0)
80001b3c:	0062102b 	sltu	v0,v1,v0
80001b40:	10400022 	beqz	v0,80001bcc <remove_mminfo+0xd4>
80001b44:	00000000 	nop
80001b48:	8fc20014 	lw	v0,20(s8)
80001b4c:	24420001 	addiu	v0,v0,1
80001b50:	afc20000 	sw	v0,0(s8)
80001b54:	10000017 	b	80001bb4 <remove_mminfo+0xbc>
80001b58:	00000000 	nop
80001b5c:	8fc20000 	lw	v0,0(s8)
80001b60:	2442ffff 	addiu	v0,v0,-1
80001b64:	8fc30010 	lw	v1,16(s8)
80001b68:	00021080 	sll	v0,v0,0x2
80001b6c:	00022080 	sll	a0,v0,0x2
80001b70:	00821023 	subu	v0,a0,v0
80001b74:	00621021 	addu	v0,v1,v0
80001b78:	8fc40010 	lw	a0,16(s8)
80001b7c:	8fc30000 	lw	v1,0(s8)
80001b80:	00031880 	sll	v1,v1,0x2
80001b84:	00032880 	sll	a1,v1,0x2
80001b88:	00a31823 	subu	v1,a1,v1
80001b8c:	00831821 	addu	v1,a0,v1
80001b90:	8c650018 	lw	a1,24(v1)
80001b94:	8c64001c 	lw	a0,28(v1)
80001b98:	8c630020 	lw	v1,32(v1)
80001b9c:	ac450018 	sw	a1,24(v0)
80001ba0:	ac44001c 	sw	a0,28(v0)
80001ba4:	ac430020 	sw	v1,32(v0)
80001ba8:	8fc20000 	lw	v0,0(s8)
80001bac:	24420001 	addiu	v0,v0,1
80001bb0:	afc20000 	sw	v0,0(s8)
80001bb4:	8fc20010 	lw	v0,16(s8)
80001bb8:	8c430014 	lw	v1,20(v0)
80001bbc:	8fc20000 	lw	v0,0(s8)
80001bc0:	0043102b 	sltu	v0,v0,v1
80001bc4:	1440ffe5 	bnez	v0,80001b5c <remove_mminfo+0x64>
80001bc8:	00000000 	nop
80001bcc:	8fc20010 	lw	v0,16(s8)
80001bd0:	8c420014 	lw	v0,20(v0)
80001bd4:	2443ffff 	addiu	v1,v0,-1
80001bd8:	8fc20010 	lw	v0,16(s8)
80001bdc:	ac430014 	sw	v1,20(v0)
80001be0:	03c0e825 	move	sp,s8
80001be4:	8fbe000c 	lw	s8,12(sp)
80001be8:	27bd0010 	addiu	sp,sp,16
80001bec:	03e00008 	jr	ra
80001bf0:	00000000 	nop

80001bf4 <init_bootmm>:
80001bf4:	27bdffe0 	addiu	sp,sp,-32
80001bf8:	afbf001c 	sw	ra,28(sp)
80001bfc:	afbe0018 	sw	s8,24(sp)
80001c00:	03a0f025 	move	s8,sp
80001c04:	3c020100 	lui	v0,0x100
80001c08:	afc20014 	sw	v0,20(s8)
80001c0c:	3c028001 	lui	v0,0x8001
80001c10:	2444ff14 	addiu	a0,v0,-236
80001c14:	00002825 	move	a1,zero
80001c18:	24060090 	li	a2,144
80001c1c:	0c00188f 	jal	8000623c <kernel_memset>
80001c20:	00000000 	nop
80001c24:	0c0004cb 	jal	8000132c <get_phymm_size>
80001c28:	00000000 	nop
80001c2c:	00401825 	move	v1,v0
80001c30:	3c028001 	lui	v0,0x8001
80001c34:	ac43ff14 	sw	v1,-236(v0)
80001c38:	3c028001 	lui	v0,0x8001
80001c3c:	8c42ff14 	lw	v0,-236(v0)
80001c40:	00021b02 	srl	v1,v0,0xc
80001c44:	3c028001 	lui	v0,0x8001
80001c48:	2442ff14 	addiu	v0,v0,-236
80001c4c:	ac430004 	sw	v1,4(v0)
80001c50:	3c028001 	lui	v0,0x8001
80001c54:	2442ff14 	addiu	v0,v0,-236
80001c58:	3c038000 	lui	v1,0x8000
80001c5c:	24637f14 	addiu	v1,v1,32532
80001c60:	ac430008 	sw	v1,8(v0)
80001c64:	3c028001 	lui	v0,0x8001
80001c68:	2442ff14 	addiu	v0,v0,-236
80001c6c:	3c038001 	lui	v1,0x8001
80001c70:	2463ff14 	addiu	v1,v1,-236
80001c74:	ac43000c 	sw	v1,12(v0)
80001c78:	3c028001 	lui	v0,0x8001
80001c7c:	2442ff14 	addiu	v0,v0,-236
80001c80:	ac400014 	sw	zero,20(v0)
80001c84:	3c028001 	lui	v0,0x8001
80001c88:	2442ff14 	addiu	v0,v0,-236
80001c8c:	8c420008 	lw	v0,8(v0)
80001c90:	00402025 	move	a0,v0
80001c94:	00002825 	move	a1,zero
80001c98:	34068000 	li	a2,0x8000
80001c9c:	0c00188f 	jal	8000623c <kernel_memset>
80001ca0:	00000000 	nop
80001ca4:	8fc20014 	lw	v0,20(s8)
80001ca8:	2443ffff 	addiu	v1,v0,-1
80001cac:	3c028001 	lui	v0,0x8001
80001cb0:	2444ff14 	addiu	a0,v0,-236
80001cb4:	00002825 	move	a1,zero
80001cb8:	00603025 	move	a2,v1
80001cbc:	00003825 	move	a3,zero
80001cc0:	0c000591 	jal	80001644 <insert_mminfo>
80001cc4:	00000000 	nop
80001cc8:	8fc20014 	lw	v0,20(s8)
80001ccc:	00021302 	srl	v0,v0,0xc
80001cd0:	2443ffff 	addiu	v1,v0,-1
80001cd4:	3c028001 	lui	v0,0x8001
80001cd8:	2442ff14 	addiu	v0,v0,-236
80001cdc:	ac430010 	sw	v1,16(v0)
80001ce0:	afc00010 	sw	zero,16(s8)
80001ce4:	1000000b 	b	80001d14 <init_bootmm+0x120>
80001ce8:	00000000 	nop
80001cec:	3c028001 	lui	v0,0x8001
80001cf0:	2442ff14 	addiu	v0,v0,-236
80001cf4:	8c430008 	lw	v1,8(v0)
80001cf8:	8fc20010 	lw	v0,16(s8)
80001cfc:	00621021 	addu	v0,v1,v0
80001d00:	2403ffff 	li	v1,-1
80001d04:	a0430000 	sb	v1,0(v0)
80001d08:	8fc20010 	lw	v0,16(s8)
80001d0c:	24420001 	addiu	v0,v0,1
80001d10:	afc20010 	sw	v0,16(s8)
80001d14:	8fc20014 	lw	v0,20(s8)
80001d18:	00021b02 	srl	v1,v0,0xc
80001d1c:	8fc20010 	lw	v0,16(s8)
80001d20:	0043102b 	sltu	v0,v0,v1
80001d24:	1440fff1 	bnez	v0,80001cec <init_bootmm+0xf8>
80001d28:	00000000 	nop
80001d2c:	03c0e825 	move	sp,s8
80001d30:	8fbf001c 	lw	ra,28(sp)
80001d34:	8fbe0018 	lw	s8,24(sp)
80001d38:	27bd0020 	addiu	sp,sp,32
80001d3c:	03e00008 	jr	ra
80001d40:	00000000 	nop

80001d44 <set_maps>:
80001d44:	27bdfff0 	addiu	sp,sp,-16
80001d48:	afbe000c 	sw	s8,12(sp)
80001d4c:	03a0f025 	move	s8,sp
80001d50:	afc40010 	sw	a0,16(s8)
80001d54:	afc50014 	sw	a1,20(s8)
80001d58:	00c01025 	move	v0,a2
80001d5c:	a3c20018 	sb	v0,24(s8)
80001d60:	8fc20014 	lw	v0,20(s8)
80001d64:	afc20000 	sw	v0,0(s8)
80001d68:	8fc20014 	lw	v0,20(s8)
80001d6c:	afc20000 	sw	v0,0(s8)
80001d70:	1000000d 	b	80001da8 <set_maps+0x64>
80001d74:	00000000 	nop
80001d78:	3c028001 	lui	v0,0x8001
80001d7c:	2442ff14 	addiu	v0,v0,-236
80001d80:	8c430008 	lw	v1,8(v0)
80001d84:	8fc20010 	lw	v0,16(s8)
80001d88:	24440001 	addiu	a0,v0,1
80001d8c:	afc40010 	sw	a0,16(s8)
80001d90:	00621021 	addu	v0,v1,v0
80001d94:	93c30018 	lbu	v1,24(s8)
80001d98:	a0430000 	sb	v1,0(v0)
80001d9c:	8fc20000 	lw	v0,0(s8)
80001da0:	2442ffff 	addiu	v0,v0,-1
80001da4:	afc20000 	sw	v0,0(s8)
80001da8:	8fc20000 	lw	v0,0(s8)
80001dac:	1440fff2 	bnez	v0,80001d78 <set_maps+0x34>
80001db0:	00000000 	nop
80001db4:	03c0e825 	move	sp,s8
80001db8:	8fbe000c 	lw	s8,12(sp)
80001dbc:	27bd0010 	addiu	sp,sp,16
80001dc0:	03e00008 	jr	ra
80001dc4:	00000000 	nop

80001dc8 <find_pages>:
80001dc8:	27bdffd8 	addiu	sp,sp,-40
80001dcc:	afbf0024 	sw	ra,36(sp)
80001dd0:	afbe0020 	sw	s8,32(sp)
80001dd4:	03a0f025 	move	s8,sp
80001dd8:	afc40028 	sw	a0,40(s8)
80001ddc:	afc5002c 	sw	a1,44(s8)
80001de0:	afc60030 	sw	a2,48(s8)
80001de4:	afc70034 	sw	a3,52(s8)
80001de8:	8fc30034 	lw	v1,52(s8)
80001dec:	8fc2002c 	lw	v0,44(s8)
80001df0:	00621021 	addu	v0,v1,v0
80001df4:	2442ffff 	addiu	v0,v0,-1
80001df8:	afc2002c 	sw	v0,44(s8)
80001dfc:	8fc20034 	lw	v0,52(s8)
80001e00:	00021023 	negu	v0,v0
80001e04:	8fc3002c 	lw	v1,44(s8)
80001e08:	00621024 	and	v0,v1,v0
80001e0c:	afc2002c 	sw	v0,44(s8)
80001e10:	8fc2002c 	lw	v0,44(s8)
80001e14:	afc20010 	sw	v0,16(s8)
80001e18:	1000004e 	b	80001f54 <find_pages+0x18c>
80001e1c:	00000000 	nop
80001e20:	3c028001 	lui	v0,0x8001
80001e24:	2442ff14 	addiu	v0,v0,-236
80001e28:	8c430008 	lw	v1,8(v0)
80001e2c:	8fc20010 	lw	v0,16(s8)
80001e30:	00621021 	addu	v0,v1,v0
80001e34:	90430000 	lbu	v1,0(v0)
80001e38:	240200ff 	li	v0,255
80001e3c:	14620006 	bne	v1,v0,80001e58 <find_pages+0x90>
80001e40:	00000000 	nop
80001e44:	8fc20010 	lw	v0,16(s8)
80001e48:	24420001 	addiu	v0,v0,1
80001e4c:	afc20010 	sw	v0,16(s8)
80001e50:	10000040 	b	80001f54 <find_pages+0x18c>
80001e54:	00000000 	nop
80001e58:	8fc20028 	lw	v0,40(s8)
80001e5c:	afc20018 	sw	v0,24(s8)
80001e60:	8fc20010 	lw	v0,16(s8)
80001e64:	afc20014 	sw	v0,20(s8)
80001e68:	10000022 	b	80001ef4 <find_pages+0x12c>
80001e6c:	00000000 	nop
80001e70:	8fc30014 	lw	v1,20(s8)
80001e74:	8fc20030 	lw	v0,48(s8)
80001e78:	0062102b 	sltu	v0,v1,v0
80001e7c:	14400004 	bnez	v0,80001e90 <find_pages+0xc8>
80001e80:	00000000 	nop
80001e84:	00001025 	move	v0,zero
80001e88:	10000038 	b	80001f6c <find_pages+0x1a4>
80001e8c:	00000000 	nop
80001e90:	3c028001 	lui	v0,0x8001
80001e94:	2442ff14 	addiu	v0,v0,-236
80001e98:	8c430008 	lw	v1,8(v0)
80001e9c:	8fc20014 	lw	v0,20(s8)
80001ea0:	00621021 	addu	v0,v1,v0
80001ea4:	90420000 	lbu	v0,0(v0)
80001ea8:	14400007 	bnez	v0,80001ec8 <find_pages+0x100>
80001eac:	00000000 	nop
80001eb0:	8fc20014 	lw	v0,20(s8)
80001eb4:	24420001 	addiu	v0,v0,1
80001eb8:	afc20014 	sw	v0,20(s8)
80001ebc:	8fc20018 	lw	v0,24(s8)
80001ec0:	2442ffff 	addiu	v0,v0,-1
80001ec4:	afc20018 	sw	v0,24(s8)
80001ec8:	3c028001 	lui	v0,0x8001
80001ecc:	2442ff14 	addiu	v0,v0,-236
80001ed0:	8c430008 	lw	v1,8(v0)
80001ed4:	8fc20014 	lw	v0,20(s8)
80001ed8:	00621021 	addu	v0,v1,v0
80001edc:	90430000 	lbu	v1,0(v0)
80001ee0:	240200ff 	li	v0,255
80001ee4:	14620003 	bne	v1,v0,80001ef4 <find_pages+0x12c>
80001ee8:	00000000 	nop
80001eec:	10000004 	b	80001f00 <find_pages+0x138>
80001ef0:	00000000 	nop
80001ef4:	8fc20018 	lw	v0,24(s8)
80001ef8:	1440ffdd 	bnez	v0,80001e70 <find_pages+0xa8>
80001efc:	00000000 	nop
80001f00:	8fc20018 	lw	v0,24(s8)
80001f04:	1440000f 	bnez	v0,80001f44 <find_pages+0x17c>
80001f08:	00000000 	nop
80001f0c:	8fc20014 	lw	v0,20(s8)
80001f10:	2443ffff 	addiu	v1,v0,-1
80001f14:	3c028001 	lui	v0,0x8001
80001f18:	2442ff14 	addiu	v0,v0,-236
80001f1c:	ac430010 	sw	v1,16(v0)
80001f20:	8fc40010 	lw	a0,16(s8)
80001f24:	8fc50028 	lw	a1,40(s8)
80001f28:	240600ff 	li	a2,255
80001f2c:	0c000751 	jal	80001d44 <set_maps>
80001f30:	00000000 	nop
80001f34:	8fc20010 	lw	v0,16(s8)
80001f38:	00021300 	sll	v0,v0,0xc
80001f3c:	1000000b 	b	80001f6c <find_pages+0x1a4>
80001f40:	00000000 	nop
80001f44:	8fc30014 	lw	v1,20(s8)
80001f48:	8fc20034 	lw	v0,52(s8)
80001f4c:	00621021 	addu	v0,v1,v0
80001f50:	afc20010 	sw	v0,16(s8)
80001f54:	8fc30010 	lw	v1,16(s8)
80001f58:	8fc20030 	lw	v0,48(s8)
80001f5c:	0062102b 	sltu	v0,v1,v0
80001f60:	1440ffaf 	bnez	v0,80001e20 <find_pages+0x58>
80001f64:	00000000 	nop
80001f68:	00001025 	move	v0,zero
80001f6c:	03c0e825 	move	sp,s8
80001f70:	8fbf0024 	lw	ra,36(sp)
80001f74:	8fbe0020 	lw	s8,32(sp)
80001f78:	27bd0028 	addiu	sp,sp,40
80001f7c:	03e00008 	jr	ra
80001f80:	00000000 	nop

80001f84 <bootmm_alloc_pages>:
80001f84:	27bdffd8 	addiu	sp,sp,-40
80001f88:	afbf0024 	sw	ra,36(sp)
80001f8c:	afbe0020 	sw	s8,32(sp)
80001f90:	03a0f025 	move	s8,sp
80001f94:	afc40028 	sw	a0,40(s8)
80001f98:	afc5002c 	sw	a1,44(s8)
80001f9c:	afc60030 	sw	a2,48(s8)
80001fa0:	8fc20028 	lw	v0,40(s8)
80001fa4:	24420fff 	addiu	v0,v0,4095
80001fa8:	afc20028 	sw	v0,40(s8)
80001fac:	8fc30028 	lw	v1,40(s8)
80001fb0:	2402f000 	li	v0,-4096
80001fb4:	00621024 	and	v0,v1,v0
80001fb8:	afc20028 	sw	v0,40(s8)
80001fbc:	8fc20028 	lw	v0,40(s8)
80001fc0:	00021302 	srl	v0,v0,0xc
80001fc4:	afc20010 	sw	v0,16(s8)
80001fc8:	8fc20030 	lw	v0,48(s8)
80001fcc:	00021302 	srl	v0,v0,0xc
80001fd0:	afc20014 	sw	v0,20(s8)
80001fd4:	3c028001 	lui	v0,0x8001
80001fd8:	2442ff14 	addiu	v0,v0,-236
80001fdc:	8c420010 	lw	v0,16(v0)
80001fe0:	24430001 	addiu	v1,v0,1
80001fe4:	3c028001 	lui	v0,0x8001
80001fe8:	2442ff14 	addiu	v0,v0,-236
80001fec:	8c420004 	lw	v0,4(v0)
80001ff0:	8fc40010 	lw	a0,16(s8)
80001ff4:	00602825 	move	a1,v1
80001ff8:	00403025 	move	a2,v0
80001ffc:	8fc70014 	lw	a3,20(s8)
80002000:	0c000772 	jal	80001dc8 <find_pages>
80002004:	00000000 	nop
80002008:	afc20018 	sw	v0,24(s8)
8000200c:	8fc20018 	lw	v0,24(s8)
80002010:	10400015 	beqz	v0,80002068 <bootmm_alloc_pages+0xe4>
80002014:	00000000 	nop
80002018:	8fc50018 	lw	a1,24(s8)
8000201c:	8fc30018 	lw	v1,24(s8)
80002020:	8fc20028 	lw	v0,40(s8)
80002024:	00621021 	addu	v0,v1,v0
80002028:	2443ffff 	addiu	v1,v0,-1
8000202c:	3c028001 	lui	v0,0x8001
80002030:	2444ff14 	addiu	a0,v0,-236
80002034:	00603025 	move	a2,v1
80002038:	8fc7002c 	lw	a3,44(s8)
8000203c:	0c000591 	jal	80001644 <insert_mminfo>
80002040:	00000000 	nop
80002044:	14400005 	bnez	v0,8000205c <bootmm_alloc_pages+0xd8>
80002048:	00000000 	nop
8000204c:	3c028000 	lui	v0,0x8000
80002050:	244475d4 	addiu	a0,v0,30164
80002054:	0c00152c 	jal	800054b0 <kernel_printf>
80002058:	00000000 	nop
8000205c:	8fc20018 	lw	v0,24(s8)
80002060:	10000023 	b	800020f0 <bootmm_alloc_pages+0x16c>
80002064:	00000000 	nop
80002068:	3c028001 	lui	v0,0x8001
8000206c:	2442ff14 	addiu	v0,v0,-236
80002070:	8c420010 	lw	v0,16(v0)
80002074:	8fc40010 	lw	a0,16(s8)
80002078:	00002825 	move	a1,zero
8000207c:	00403025 	move	a2,v0
80002080:	8fc70014 	lw	a3,20(s8)
80002084:	0c000772 	jal	80001dc8 <find_pages>
80002088:	00000000 	nop
8000208c:	afc20018 	sw	v0,24(s8)
80002090:	8fc20018 	lw	v0,24(s8)
80002094:	10400015 	beqz	v0,800020ec <bootmm_alloc_pages+0x168>
80002098:	00000000 	nop
8000209c:	8fc50018 	lw	a1,24(s8)
800020a0:	8fc30018 	lw	v1,24(s8)
800020a4:	8fc20028 	lw	v0,40(s8)
800020a8:	00621021 	addu	v0,v1,v0
800020ac:	2443ffff 	addiu	v1,v0,-1
800020b0:	3c028001 	lui	v0,0x8001
800020b4:	2444ff14 	addiu	a0,v0,-236
800020b8:	00603025 	move	a2,v1
800020bc:	8fc7002c 	lw	a3,44(s8)
800020c0:	0c000591 	jal	80001644 <insert_mminfo>
800020c4:	00000000 	nop
800020c8:	14400005 	bnez	v0,800020e0 <bootmm_alloc_pages+0x15c>
800020cc:	00000000 	nop
800020d0:	3c028000 	lui	v0,0x8000
800020d4:	244475d4 	addiu	a0,v0,30164
800020d8:	0c00152c 	jal	800054b0 <kernel_printf>
800020dc:	00000000 	nop
800020e0:	8fc20018 	lw	v0,24(s8)
800020e4:	10000002 	b	800020f0 <bootmm_alloc_pages+0x16c>
800020e8:	00000000 	nop
800020ec:	00001025 	move	v0,zero
800020f0:	03c0e825 	move	sp,s8
800020f4:	8fbf0024 	lw	ra,36(sp)
800020f8:	8fbe0020 	lw	s8,32(sp)
800020fc:	27bd0028 	addiu	sp,sp,40
80002100:	03e00008 	jr	ra
80002104:	00000000 	nop

80002108 <bootmap_info>:
80002108:	27bdffe0 	addiu	sp,sp,-32
8000210c:	afbf001c 	sw	ra,28(sp)
80002110:	afbe0018 	sw	s8,24(sp)
80002114:	03a0f025 	move	s8,sp
80002118:	3c028000 	lui	v0,0x8000
8000211c:	244475ec 	addiu	a0,v0,30188
80002120:	0c00152c 	jal	800054b0 <kernel_printf>
80002124:	00000000 	nop
80002128:	afc00010 	sw	zero,16(s8)
8000212c:	1000002c 	b	800021e0 <bootmap_info+0xd8>
80002130:	00000000 	nop
80002134:	3c048001 	lui	a0,0x8001
80002138:	8fc20010 	lw	v0,16(s8)
8000213c:	00401825 	move	v1,v0
80002140:	00031080 	sll	v0,v1,0x2
80002144:	00401825 	move	v1,v0
80002148:	00031080 	sll	v0,v1,0x2
8000214c:	00431023 	subu	v0,v0,v1
80002150:	2483ff14 	addiu	v1,a0,-236
80002154:	00431021 	addu	v0,v0,v1
80002158:	8c450018 	lw	a1,24(v0)
8000215c:	3c048001 	lui	a0,0x8001
80002160:	8fc20010 	lw	v0,16(s8)
80002164:	00401825 	move	v1,v0
80002168:	00031080 	sll	v0,v1,0x2
8000216c:	00401825 	move	v1,v0
80002170:	00031080 	sll	v0,v1,0x2
80002174:	00431023 	subu	v0,v0,v1
80002178:	2483ff14 	addiu	v1,a0,-236
8000217c:	00431021 	addu	v0,v0,v1
80002180:	8c46001c 	lw	a2,28(v0)
80002184:	3c048001 	lui	a0,0x8001
80002188:	8fc20010 	lw	v0,16(s8)
8000218c:	00401825 	move	v1,v0
80002190:	00031080 	sll	v0,v1,0x2
80002194:	00401825 	move	v1,v0
80002198:	00031080 	sll	v0,v1,0x2
8000219c:	00431023 	subu	v0,v0,v1
800021a0:	2483ff14 	addiu	v1,a0,-236
800021a4:	00431021 	addu	v0,v0,v1
800021a8:	8c430020 	lw	v1,32(v0)
800021ac:	3c028000 	lui	v0,0x8000
800021b0:	00031880 	sll	v1,v1,0x2
800021b4:	24427b90 	addiu	v0,v0,31632
800021b8:	00621021 	addu	v0,v1,v0
800021bc:	8c430000 	lw	v1,0(v0)
800021c0:	3c028000 	lui	v0,0x8000
800021c4:	244475fc 	addiu	a0,v0,30204
800021c8:	00603825 	move	a3,v1
800021cc:	0c00152c 	jal	800054b0 <kernel_printf>
800021d0:	00000000 	nop
800021d4:	8fc20010 	lw	v0,16(s8)
800021d8:	24420001 	addiu	v0,v0,1
800021dc:	afc20010 	sw	v0,16(s8)
800021e0:	3c028001 	lui	v0,0x8001
800021e4:	2442ff14 	addiu	v0,v0,-236
800021e8:	8c430014 	lw	v1,20(v0)
800021ec:	8fc20010 	lw	v0,16(s8)
800021f0:	0043102b 	sltu	v0,v0,v1
800021f4:	1440ffcf 	bnez	v0,80002134 <bootmap_info+0x2c>
800021f8:	00000000 	nop
800021fc:	03c0e825 	move	sp,s8
80002200:	8fbf001c 	lw	ra,28(sp)
80002204:	8fbe0018 	lw	s8,24(sp)
80002208:	27bd0020 	addiu	sp,sp,32
8000220c:	03e00008 	jr	ra
80002210:	00000000 	nop

80002214 <bootmm_free_pages>:
80002214:	27bdffd8 	addiu	sp,sp,-40
80002218:	afbf0024 	sw	ra,36(sp)
8000221c:	afbe0020 	sw	s8,32(sp)
80002220:	03a0f025 	move	s8,sp
80002224:	afc40028 	sw	a0,40(s8)
80002228:	afc5002c 	sw	a1,44(s8)
8000222c:	8fc3002c 	lw	v1,44(s8)
80002230:	2402f000 	li	v0,-4096
80002234:	00621024 	and	v0,v1,v0
80002238:	afc2002c 	sw	v0,44(s8)
8000223c:	8fc2002c 	lw	v0,44(s8)
80002240:	00021302 	srl	v0,v0,0xc
80002244:	afc20014 	sw	v0,20(s8)
80002248:	8fc20014 	lw	v0,20(s8)
8000224c:	14400003 	bnez	v0,8000225c <bootmm_free_pages+0x48>
80002250:	00000000 	nop
80002254:	100000f5 	b	8000262c <bootmm_free_pages+0x418>
80002258:	00000000 	nop
8000225c:	8fc30028 	lw	v1,40(s8)
80002260:	2402f000 	li	v0,-4096
80002264:	00621024 	and	v0,v1,v0
80002268:	afc20028 	sw	v0,40(s8)
8000226c:	afc00010 	sw	zero,16(s8)
80002270:	10000039 	b	80002358 <bootmm_free_pages+0x144>
80002274:	00000000 	nop
80002278:	3c048001 	lui	a0,0x8001
8000227c:	8fc20010 	lw	v0,16(s8)
80002280:	00401825 	move	v1,v0
80002284:	00031080 	sll	v0,v1,0x2
80002288:	00401825 	move	v1,v0
8000228c:	00031080 	sll	v0,v1,0x2
80002290:	00431023 	subu	v0,v0,v1
80002294:	2483ff14 	addiu	v1,a0,-236
80002298:	00431021 	addu	v0,v0,v1
8000229c:	8c43001c 	lw	v1,28(v0)
800022a0:	8fc20028 	lw	v0,40(s8)
800022a4:	0062102b 	sltu	v0,v1,v0
800022a8:	10400003 	beqz	v0,800022b8 <bootmm_free_pages+0xa4>
800022ac:	00000000 	nop
800022b0:	10000026 	b	8000234c <bootmm_free_pages+0x138>
800022b4:	00000000 	nop
800022b8:	3c048001 	lui	a0,0x8001
800022bc:	8fc20010 	lw	v0,16(s8)
800022c0:	00401825 	move	v1,v0
800022c4:	00031080 	sll	v0,v1,0x2
800022c8:	00401825 	move	v1,v0
800022cc:	00031080 	sll	v0,v1,0x2
800022d0:	00431023 	subu	v0,v0,v1
800022d4:	2483ff14 	addiu	v1,a0,-236
800022d8:	00431021 	addu	v0,v0,v1
800022dc:	8c430018 	lw	v1,24(v0)
800022e0:	8fc20028 	lw	v0,40(s8)
800022e4:	0043102b 	sltu	v0,v0,v1
800022e8:	10400003 	beqz	v0,800022f8 <bootmm_free_pages+0xe4>
800022ec:	00000000 	nop
800022f0:	10000016 	b	8000234c <bootmm_free_pages+0x138>
800022f4:	00000000 	nop
800022f8:	8fc30028 	lw	v1,40(s8)
800022fc:	8fc2002c 	lw	v0,44(s8)
80002300:	00621021 	addu	v0,v1,v0
80002304:	2444ffff 	addiu	a0,v0,-1
80002308:	3c058001 	lui	a1,0x8001
8000230c:	8fc20010 	lw	v0,16(s8)
80002310:	00401825 	move	v1,v0
80002314:	00031080 	sll	v0,v1,0x2
80002318:	00401825 	move	v1,v0
8000231c:	00031080 	sll	v0,v1,0x2
80002320:	00431023 	subu	v0,v0,v1
80002324:	24a3ff14 	addiu	v1,a1,-236
80002328:	00431021 	addu	v0,v0,v1
8000232c:	8c42001c 	lw	v0,28(v0)
80002330:	0044102b 	sltu	v0,v0,a0
80002334:	10400003 	beqz	v0,80002344 <bootmm_free_pages+0x130>
80002338:	00000000 	nop
8000233c:	10000003 	b	8000234c <bootmm_free_pages+0x138>
80002340:	00000000 	nop
80002344:	1000000b 	b	80002374 <bootmm_free_pages+0x160>
80002348:	00000000 	nop
8000234c:	8fc20010 	lw	v0,16(s8)
80002350:	24420001 	addiu	v0,v0,1
80002354:	afc20010 	sw	v0,16(s8)
80002358:	3c028001 	lui	v0,0x8001
8000235c:	2442ff14 	addiu	v0,v0,-236
80002360:	8c430014 	lw	v1,20(v0)
80002364:	8fc20010 	lw	v0,16(s8)
80002368:	0043102b 	sltu	v0,v0,v1
8000236c:	1440ffc2 	bnez	v0,80002278 <bootmm_free_pages+0x64>
80002370:	00000000 	nop
80002374:	3c028001 	lui	v0,0x8001
80002378:	2442ff14 	addiu	v0,v0,-236
8000237c:	8c430014 	lw	v1,20(v0)
80002380:	8fc20010 	lw	v0,16(s8)
80002384:	14620009 	bne	v1,v0,800023ac <bootmm_free_pages+0x198>
80002388:	00000000 	nop
8000238c:	3c028000 	lui	v0,0x8000
80002390:	2444760c 	addiu	a0,v0,30220
80002394:	8fc50028 	lw	a1,40(s8)
80002398:	8fc6002c 	lw	a2,44(s8)
8000239c:	0c00152c 	jal	800054b0 <kernel_printf>
800023a0:	00000000 	nop
800023a4:	100000a1 	b	8000262c <bootmm_free_pages+0x418>
800023a8:	00000000 	nop
800023ac:	8fc20028 	lw	v0,40(s8)
800023b0:	00021302 	srl	v0,v0,0xc
800023b4:	afc20018 	sw	v0,24(s8)
800023b8:	8fc40018 	lw	a0,24(s8)
800023bc:	8fc50014 	lw	a1,20(s8)
800023c0:	00003025 	move	a2,zero
800023c4:	0c000751 	jal	80001d44 <set_maps>
800023c8:	00000000 	nop
800023cc:	3c048001 	lui	a0,0x8001
800023d0:	8fc20010 	lw	v0,16(s8)
800023d4:	00401825 	move	v1,v0
800023d8:	00031080 	sll	v0,v1,0x2
800023dc:	00401825 	move	v1,v0
800023e0:	00031080 	sll	v0,v1,0x2
800023e4:	00431023 	subu	v0,v0,v1
800023e8:	2483ff14 	addiu	v1,a0,-236
800023ec:	00431021 	addu	v0,v0,v1
800023f0:	8c430018 	lw	v1,24(v0)
800023f4:	8fc20028 	lw	v0,40(s8)
800023f8:	1462003f 	bne	v1,v0,800024f8 <bootmm_free_pages+0x2e4>
800023fc:	00000000 	nop
80002400:	3c048001 	lui	a0,0x8001
80002404:	8fc20010 	lw	v0,16(s8)
80002408:	00401825 	move	v1,v0
8000240c:	00031080 	sll	v0,v1,0x2
80002410:	00401825 	move	v1,v0
80002414:	00031080 	sll	v0,v1,0x2
80002418:	00431023 	subu	v0,v0,v1
8000241c:	2483ff14 	addiu	v1,a0,-236
80002420:	00431021 	addu	v0,v0,v1
80002424:	8c43001c 	lw	v1,28(v0)
80002428:	8fc40028 	lw	a0,40(s8)
8000242c:	8fc2002c 	lw	v0,44(s8)
80002430:	00821021 	addu	v0,a0,v0
80002434:	2442ffff 	addiu	v0,v0,-1
80002438:	14620008 	bne	v1,v0,8000245c <bootmm_free_pages+0x248>
8000243c:	00000000 	nop
80002440:	3c028001 	lui	v0,0x8001
80002444:	2444ff14 	addiu	a0,v0,-236
80002448:	8fc50010 	lw	a1,16(s8)
8000244c:	0c0006be 	jal	80001af8 <remove_mminfo>
80002450:	00000000 	nop
80002454:	10000075 	b	8000262c <bootmm_free_pages+0x418>
80002458:	00000000 	nop
8000245c:	8fc20010 	lw	v0,16(s8)
80002460:	00401825 	move	v1,v0
80002464:	00031080 	sll	v0,v1,0x2
80002468:	00401825 	move	v1,v0
8000246c:	00031080 	sll	v0,v1,0x2
80002470:	00431023 	subu	v0,v0,v1
80002474:	24430018 	addiu	v1,v0,24
80002478:	3c028001 	lui	v0,0x8001
8000247c:	2442ff14 	addiu	v0,v0,-236
80002480:	00623821 	addu	a3,v1,v0
80002484:	8fc30028 	lw	v1,40(s8)
80002488:	8fc2002c 	lw	v0,44(s8)
8000248c:	00622821 	addu	a1,v1,v0
80002490:	3c048001 	lui	a0,0x8001
80002494:	8fc20010 	lw	v0,16(s8)
80002498:	00401825 	move	v1,v0
8000249c:	00031080 	sll	v0,v1,0x2
800024a0:	00401825 	move	v1,v0
800024a4:	00031080 	sll	v0,v1,0x2
800024a8:	00431023 	subu	v0,v0,v1
800024ac:	2483ff14 	addiu	v1,a0,-236
800024b0:	00431021 	addu	v0,v0,v1
800024b4:	8c46001c 	lw	a2,28(v0)
800024b8:	3c048001 	lui	a0,0x8001
800024bc:	8fc20010 	lw	v0,16(s8)
800024c0:	00401825 	move	v1,v0
800024c4:	00031080 	sll	v0,v1,0x2
800024c8:	00401825 	move	v1,v0
800024cc:	00031080 	sll	v0,v1,0x2
800024d0:	00431023 	subu	v0,v0,v1
800024d4:	2483ff14 	addiu	v1,a0,-236
800024d8:	00431021 	addu	v0,v0,v1
800024dc:	8c420020 	lw	v0,32(v0)
800024e0:	00e02025 	move	a0,a3
800024e4:	00403825 	move	a3,v0
800024e8:	0c00057c 	jal	800015f0 <set_mminfo>
800024ec:	00000000 	nop
800024f0:	1000004e 	b	8000262c <bootmm_free_pages+0x418>
800024f4:	00000000 	nop
800024f8:	3c048001 	lui	a0,0x8001
800024fc:	8fc20010 	lw	v0,16(s8)
80002500:	00401825 	move	v1,v0
80002504:	00031080 	sll	v0,v1,0x2
80002508:	00401825 	move	v1,v0
8000250c:	00031080 	sll	v0,v1,0x2
80002510:	00431023 	subu	v0,v0,v1
80002514:	2483ff14 	addiu	v1,a0,-236
80002518:	00431021 	addu	v0,v0,v1
8000251c:	8c43001c 	lw	v1,28(v0)
80002520:	8fc40028 	lw	a0,40(s8)
80002524:	8fc2002c 	lw	v0,44(s8)
80002528:	00821021 	addu	v0,a0,v0
8000252c:	2442ffff 	addiu	v0,v0,-1
80002530:	14620027 	bne	v1,v0,800025d0 <bootmm_free_pages+0x3bc>
80002534:	00000000 	nop
80002538:	8fc20010 	lw	v0,16(s8)
8000253c:	00401825 	move	v1,v0
80002540:	00031080 	sll	v0,v1,0x2
80002544:	00401825 	move	v1,v0
80002548:	00031080 	sll	v0,v1,0x2
8000254c:	00431023 	subu	v0,v0,v1
80002550:	24430018 	addiu	v1,v0,24
80002554:	3c028001 	lui	v0,0x8001
80002558:	2442ff14 	addiu	v0,v0,-236
8000255c:	00623821 	addu	a3,v1,v0
80002560:	3c048001 	lui	a0,0x8001
80002564:	8fc20010 	lw	v0,16(s8)
80002568:	00401825 	move	v1,v0
8000256c:	00031080 	sll	v0,v1,0x2
80002570:	00401825 	move	v1,v0
80002574:	00031080 	sll	v0,v1,0x2
80002578:	00431023 	subu	v0,v0,v1
8000257c:	2483ff14 	addiu	v1,a0,-236
80002580:	00431021 	addu	v0,v0,v1
80002584:	8c450018 	lw	a1,24(v0)
80002588:	8fc20028 	lw	v0,40(s8)
8000258c:	2446ffff 	addiu	a2,v0,-1
80002590:	3c048001 	lui	a0,0x8001
80002594:	8fc20010 	lw	v0,16(s8)
80002598:	00401825 	move	v1,v0
8000259c:	00031080 	sll	v0,v1,0x2
800025a0:	00401825 	move	v1,v0
800025a4:	00031080 	sll	v0,v1,0x2
800025a8:	00431023 	subu	v0,v0,v1
800025ac:	2483ff14 	addiu	v1,a0,-236
800025b0:	00431021 	addu	v0,v0,v1
800025b4:	8c420020 	lw	v0,32(v0)
800025b8:	00e02025 	move	a0,a3
800025bc:	00403825 	move	a3,v0
800025c0:	0c00057c 	jal	800015f0 <set_mminfo>
800025c4:	00000000 	nop
800025c8:	10000018 	b	8000262c <bootmm_free_pages+0x418>
800025cc:	00000000 	nop
800025d0:	3c028001 	lui	v0,0x8001
800025d4:	2444ff14 	addiu	a0,v0,-236
800025d8:	8fc50010 	lw	a1,16(s8)
800025dc:	8fc60028 	lw	a2,40(s8)
800025e0:	0c000651 	jal	80001944 <split_mminfo>
800025e4:	00000000 	nop
800025e8:	8fc20010 	lw	v0,16(s8)
800025ec:	24450001 	addiu	a1,v0,1
800025f0:	8fc30028 	lw	v1,40(s8)
800025f4:	8fc2002c 	lw	v0,44(s8)
800025f8:	00621821 	addu	v1,v1,v0
800025fc:	3c028001 	lui	v0,0x8001
80002600:	2444ff14 	addiu	a0,v0,-236
80002604:	00603025 	move	a2,v1
80002608:	0c000651 	jal	80001944 <split_mminfo>
8000260c:	00000000 	nop
80002610:	8fc20010 	lw	v0,16(s8)
80002614:	24430001 	addiu	v1,v0,1
80002618:	3c028001 	lui	v0,0x8001
8000261c:	2444ff14 	addiu	a0,v0,-236
80002620:	00602825 	move	a1,v1
80002624:	0c0006be 	jal	80001af8 <remove_mminfo>
80002628:	00000000 	nop
8000262c:	03c0e825 	move	sp,s8
80002630:	8fbf0024 	lw	ra,36(sp)
80002634:	8fbe0020 	lw	s8,32(sp)
80002638:	27bd0028 	addiu	sp,sp,40
8000263c:	03e00008 	jr	ra
80002640:	00000000 	nop

80002644 <INIT_LIST_HEAD>:
80002644:	27bdfff8 	addiu	sp,sp,-8
80002648:	afbe0004 	sw	s8,4(sp)
8000264c:	03a0f025 	move	s8,sp
80002650:	afc40008 	sw	a0,8(s8)
80002654:	8fc20008 	lw	v0,8(s8)
80002658:	8fc30008 	lw	v1,8(s8)
8000265c:	ac430000 	sw	v1,0(v0)
80002660:	8fc20008 	lw	v0,8(s8)
80002664:	8fc30008 	lw	v1,8(s8)
80002668:	ac430004 	sw	v1,4(v0)
8000266c:	03c0e825 	move	sp,s8
80002670:	8fbe0004 	lw	s8,4(sp)
80002674:	27bd0008 	addiu	sp,sp,8
80002678:	03e00008 	jr	ra
8000267c:	00000000 	nop

80002680 <__list_add>:
80002680:	27bdfff8 	addiu	sp,sp,-8
80002684:	afbe0004 	sw	s8,4(sp)
80002688:	03a0f025 	move	s8,sp
8000268c:	afc40008 	sw	a0,8(s8)
80002690:	afc5000c 	sw	a1,12(s8)
80002694:	afc60010 	sw	a2,16(s8)
80002698:	8fc20008 	lw	v0,8(s8)
8000269c:	8fc30010 	lw	v1,16(s8)
800026a0:	ac430004 	sw	v1,4(v0)
800026a4:	8fc20008 	lw	v0,8(s8)
800026a8:	8fc3000c 	lw	v1,12(s8)
800026ac:	ac430000 	sw	v1,0(v0)
800026b0:	8fc2000c 	lw	v0,12(s8)
800026b4:	8fc30008 	lw	v1,8(s8)
800026b8:	ac430004 	sw	v1,4(v0)
800026bc:	8fc20010 	lw	v0,16(s8)
800026c0:	8fc30008 	lw	v1,8(s8)
800026c4:	ac430000 	sw	v1,0(v0)
800026c8:	03c0e825 	move	sp,s8
800026cc:	8fbe0004 	lw	s8,4(sp)
800026d0:	27bd0008 	addiu	sp,sp,8
800026d4:	03e00008 	jr	ra
800026d8:	00000000 	nop

800026dc <list_add_tail>:
800026dc:	27bdffe8 	addiu	sp,sp,-24
800026e0:	afbf0014 	sw	ra,20(sp)
800026e4:	afbe0010 	sw	s8,16(sp)
800026e8:	03a0f025 	move	s8,sp
800026ec:	afc40018 	sw	a0,24(s8)
800026f0:	afc5001c 	sw	a1,28(s8)
800026f4:	8fc2001c 	lw	v0,28(s8)
800026f8:	8c420000 	lw	v0,0(v0)
800026fc:	8fc40018 	lw	a0,24(s8)
80002700:	00402825 	move	a1,v0
80002704:	8fc6001c 	lw	a2,28(s8)
80002708:	0c0009a0 	jal	80002680 <__list_add>
8000270c:	00000000 	nop
80002710:	03c0e825 	move	sp,s8
80002714:	8fbf0014 	lw	ra,20(sp)
80002718:	8fbe0010 	lw	s8,16(sp)
8000271c:	27bd0018 	addiu	sp,sp,24
80002720:	03e00008 	jr	ra
80002724:	00000000 	nop

80002728 <__list_del>:
80002728:	27bdfff8 	addiu	sp,sp,-8
8000272c:	afbe0004 	sw	s8,4(sp)
80002730:	03a0f025 	move	s8,sp
80002734:	afc40008 	sw	a0,8(s8)
80002738:	afc5000c 	sw	a1,12(s8)
8000273c:	8fc20008 	lw	v0,8(s8)
80002740:	8fc3000c 	lw	v1,12(s8)
80002744:	ac430004 	sw	v1,4(v0)
80002748:	8fc2000c 	lw	v0,12(s8)
8000274c:	8fc30008 	lw	v1,8(s8)
80002750:	ac430000 	sw	v1,0(v0)
80002754:	03c0e825 	move	sp,s8
80002758:	8fbe0004 	lw	s8,4(sp)
8000275c:	27bd0008 	addiu	sp,sp,8
80002760:	03e00008 	jr	ra
80002764:	00000000 	nop

80002768 <list_del>:
80002768:	27bdffe8 	addiu	sp,sp,-24
8000276c:	afbf0014 	sw	ra,20(sp)
80002770:	afbe0010 	sw	s8,16(sp)
80002774:	03a0f025 	move	s8,sp
80002778:	afc40018 	sw	a0,24(s8)
8000277c:	8fc20018 	lw	v0,24(s8)
80002780:	8c430000 	lw	v1,0(v0)
80002784:	8fc20018 	lw	v0,24(s8)
80002788:	8c420004 	lw	v0,4(v0)
8000278c:	00602025 	move	a0,v1
80002790:	00402825 	move	a1,v0
80002794:	0c0009ca 	jal	80002728 <__list_del>
80002798:	00000000 	nop
8000279c:	8fc20018 	lw	v0,24(s8)
800027a0:	3c031010 	lui	v1,0x1010
800027a4:	34631010 	ori	v1,v1,0x1010
800027a8:	ac430000 	sw	v1,0(v0)
800027ac:	8fc20018 	lw	v0,24(s8)
800027b0:	3c032020 	lui	v1,0x2020
800027b4:	34632020 	ori	v1,v1,0x2020
800027b8:	ac430004 	sw	v1,4(v0)
800027bc:	03c0e825 	move	sp,s8
800027c0:	8fbf0014 	lw	ra,20(sp)
800027c4:	8fbe0010 	lw	s8,16(sp)
800027c8:	27bd0018 	addiu	sp,sp,24
800027cc:	03e00008 	jr	ra
800027d0:	00000000 	nop

800027d4 <list_del_init>:
800027d4:	27bdffe8 	addiu	sp,sp,-24
800027d8:	afbf0014 	sw	ra,20(sp)
800027dc:	afbe0010 	sw	s8,16(sp)
800027e0:	03a0f025 	move	s8,sp
800027e4:	afc40018 	sw	a0,24(s8)
800027e8:	8fc20018 	lw	v0,24(s8)
800027ec:	8c430000 	lw	v1,0(v0)
800027f0:	8fc20018 	lw	v0,24(s8)
800027f4:	8c420004 	lw	v0,4(v0)
800027f8:	00602025 	move	a0,v1
800027fc:	00402825 	move	a1,v0
80002800:	0c0009ca 	jal	80002728 <__list_del>
80002804:	00000000 	nop
80002808:	8fc40018 	lw	a0,24(s8)
8000280c:	0c000991 	jal	80002644 <INIT_LIST_HEAD>
80002810:	00000000 	nop
80002814:	03c0e825 	move	sp,s8
80002818:	8fbf0014 	lw	ra,20(sp)
8000281c:	8fbe0010 	lw	s8,16(sp)
80002820:	27bd0018 	addiu	sp,sp,24
80002824:	03e00008 	jr	ra
80002828:	00000000 	nop

8000282c <list_empty>:
8000282c:	27bdfff8 	addiu	sp,sp,-8
80002830:	afbe0004 	sw	s8,4(sp)
80002834:	03a0f025 	move	s8,sp
80002838:	afc40008 	sw	a0,8(s8)
8000283c:	8fc20008 	lw	v0,8(s8)
80002840:	8c430004 	lw	v1,4(v0)
80002844:	8fc20008 	lw	v0,8(s8)
80002848:	00621026 	xor	v0,v1,v0
8000284c:	2c420001 	sltiu	v0,v0,1
80002850:	304200ff 	andi	v0,v0,0xff
80002854:	03c0e825 	move	sp,s8
80002858:	8fbe0004 	lw	s8,4(sp)
8000285c:	27bd0008 	addiu	sp,sp,8
80002860:	03e00008 	jr	ra
80002864:	00000000 	nop

80002868 <judge_slab_free>:
80002868:	27bdffd8 	addiu	sp,sp,-40
8000286c:	afbf0024 	sw	ra,36(sp)
80002870:	afbe0020 	sw	s8,32(sp)
80002874:	03a0f025 	move	s8,sp
80002878:	afc40028 	sw	a0,40(s8)
8000287c:	afc5002c 	sw	a1,44(s8)
80002880:	3c028000 	lui	v0,0x8000
80002884:	24447638 	addiu	a0,v0,30264
80002888:	8fc5002c 	lw	a1,44(s8)
8000288c:	0c00152c 	jal	800054b0 <kernel_printf>
80002890:	00000000 	nop
80002894:	8f838094 	lw	v1,-32620(gp)
80002898:	8fc2002c 	lw	v0,44(s8)
8000289c:	00021302 	srl	v0,v0,0xc
800028a0:	00021080 	sll	v0,v0,0x2
800028a4:	000220c0 	sll	a0,v0,0x3
800028a8:	00821023 	subu	v0,a0,v0
800028ac:	00621021 	addu	v0,v1,v0
800028b0:	afc20018 	sw	v0,24(s8)
800028b4:	8fc3002c 	lw	v1,44(s8)
800028b8:	3c028000 	lui	v0,0x8000
800028bc:	00621025 	or	v0,v1,v0
800028c0:	afc2002c 	sw	v0,44(s8)
800028c4:	8fc20018 	lw	v0,24(s8)
800028c8:	8c420018 	lw	v0,24(v0)
800028cc:	afc20010 	sw	v0,16(s8)
800028d0:	afc00014 	sw	zero,20(s8)
800028d4:	8fc20018 	lw	v0,24(s8)
800028d8:	8c430000 	lw	v1,0(v0)
800028dc:	3c022000 	lui	v0,0x2000
800028e0:	10620004 	beq	v1,v0,800028f4 <judge_slab_free+0x8c>
800028e4:	00000000 	nop
800028e8:	24020001 	li	v0,1
800028ec:	10000022 	b	80002978 <judge_slab_free+0x110>
800028f0:	00000000 	nop
800028f4:	10000011 	b	8000293c <judge_slab_free+0xd4>
800028f8:	00000000 	nop
800028fc:	8fc20010 	lw	v0,16(s8)
80002900:	8c430000 	lw	v1,0(v0)
80002904:	8fc2002c 	lw	v0,44(s8)
80002908:	14620005 	bne	v1,v0,80002920 <judge_slab_free+0xb8>
8000290c:	00000000 	nop
80002910:	24020001 	li	v0,1
80002914:	afc20014 	sw	v0,20(s8)
80002918:	10000010 	b	8000295c <judge_slab_free+0xf4>
8000291c:	00000000 	nop
80002920:	8fc20010 	lw	v0,16(s8)
80002924:	8c420000 	lw	v0,0(v0)
80002928:	00401825 	move	v1,v0
8000292c:	8fc20028 	lw	v0,40(s8)
80002930:	8c420008 	lw	v0,8(v0)
80002934:	00621021 	addu	v0,v1,v0
80002938:	afc20010 	sw	v0,16(s8)
8000293c:	8fc20010 	lw	v0,16(s8)
80002940:	8c420000 	lw	v0,0(v0)
80002944:	00402025 	move	a0,v0
80002948:	24051000 	li	a1,4096
8000294c:	0c001944 	jal	80006510 <is_bound>
80002950:	00000000 	nop
80002954:	1040ffe9 	beqz	v0,800028fc <judge_slab_free+0x94>
80002958:	00000000 	nop
8000295c:	8fc20014 	lw	v0,20(s8)
80002960:	10400004 	beqz	v0,80002974 <judge_slab_free+0x10c>
80002964:	00000000 	nop
80002968:	24020001 	li	v0,1
8000296c:	10000002 	b	80002978 <judge_slab_free+0x110>
80002970:	00000000 	nop
80002974:	00001025 	move	v0,zero
80002978:	03c0e825 	move	sp,s8
8000297c:	8fbf0024 	lw	ra,36(sp)
80002980:	8fbe0020 	lw	s8,32(sp)
80002984:	27bd0028 	addiu	sp,sp,40
80002988:	03e00008 	jr	ra
8000298c:	00000000 	nop

80002990 <init_kmem_cpu>:
80002990:	27bdfff8 	addiu	sp,sp,-8
80002994:	afbe0004 	sw	s8,4(sp)
80002998:	03a0f025 	move	s8,sp
8000299c:	afc40008 	sw	a0,8(s8)
800029a0:	8fc20008 	lw	v0,8(s8)
800029a4:	ac400004 	sw	zero,4(v0)
800029a8:	8fc20008 	lw	v0,8(s8)
800029ac:	ac400000 	sw	zero,0(v0)
800029b0:	03c0e825 	move	sp,s8
800029b4:	8fbe0004 	lw	s8,4(sp)
800029b8:	27bd0008 	addiu	sp,sp,8
800029bc:	03e00008 	jr	ra
800029c0:	00000000 	nop

800029c4 <init_kmem_node>:
800029c4:	27bdffe8 	addiu	sp,sp,-24
800029c8:	afbf0014 	sw	ra,20(sp)
800029cc:	afbe0010 	sw	s8,16(sp)
800029d0:	03a0f025 	move	s8,sp
800029d4:	afc40018 	sw	a0,24(s8)
800029d8:	8fc20018 	lw	v0,24(s8)
800029dc:	24420008 	addiu	v0,v0,8
800029e0:	00402025 	move	a0,v0
800029e4:	0c000991 	jal	80002644 <INIT_LIST_HEAD>
800029e8:	00000000 	nop
800029ec:	8fc20018 	lw	v0,24(s8)
800029f0:	00402025 	move	a0,v0
800029f4:	0c000991 	jal	80002644 <INIT_LIST_HEAD>
800029f8:	00000000 	nop
800029fc:	03c0e825 	move	sp,s8
80002a00:	8fbf0014 	lw	ra,20(sp)
80002a04:	8fbe0010 	lw	s8,16(sp)
80002a08:	27bd0018 	addiu	sp,sp,24
80002a0c:	03e00008 	jr	ra
80002a10:	00000000 	nop

80002a14 <init_each_slab>:
80002a14:	27bdffe8 	addiu	sp,sp,-24
80002a18:	afbf0014 	sw	ra,20(sp)
80002a1c:	afbe0010 	sw	s8,16(sp)
80002a20:	03a0f025 	move	s8,sp
80002a24:	afc40018 	sw	a0,24(s8)
80002a28:	afc5001c 	sw	a1,28(s8)
80002a2c:	8fc20018 	lw	v0,24(s8)
80002a30:	8fc3001c 	lw	v1,28(s8)
80002a34:	ac430004 	sw	v1,4(v0)
80002a38:	8fc20018 	lw	v0,24(s8)
80002a3c:	8c420004 	lw	v0,4(v0)
80002a40:	24430003 	addiu	v1,v0,3
80002a44:	8fc20018 	lw	v0,24(s8)
80002a48:	ac430004 	sw	v1,4(v0)
80002a4c:	8fc20018 	lw	v0,24(s8)
80002a50:	8c430004 	lw	v1,4(v0)
80002a54:	2402fffc 	li	v0,-4
80002a58:	00621824 	and	v1,v1,v0
80002a5c:	8fc20018 	lw	v0,24(s8)
80002a60:	ac430004 	sw	v1,4(v0)
80002a64:	8fc20018 	lw	v0,24(s8)
80002a68:	8c420004 	lw	v0,4(v0)
80002a6c:	24430004 	addiu	v1,v0,4
80002a70:	8fc20018 	lw	v0,24(s8)
80002a74:	ac430000 	sw	v1,0(v0)
80002a78:	8fc20018 	lw	v0,24(s8)
80002a7c:	8fc3001c 	lw	v1,28(s8)
80002a80:	ac430008 	sw	v1,8(v0)
80002a84:	8fc20018 	lw	v0,24(s8)
80002a88:	2442001c 	addiu	v0,v0,28
80002a8c:	00402025 	move	a0,v0
80002a90:	0c000a64 	jal	80002990 <init_kmem_cpu>
80002a94:	00000000 	nop
80002a98:	8fc20018 	lw	v0,24(s8)
80002a9c:	2442000c 	addiu	v0,v0,12
80002aa0:	00402025 	move	a0,v0
80002aa4:	0c000a71 	jal	800029c4 <init_kmem_node>
80002aa8:	00000000 	nop
80002aac:	03c0e825 	move	sp,s8
80002ab0:	8fbf0014 	lw	ra,20(sp)
80002ab4:	8fbe0010 	lw	s8,16(sp)
80002ab8:	27bd0018 	addiu	sp,sp,24
80002abc:	03e00008 	jr	ra
80002ac0:	00000000 	nop

80002ac4 <init_slab>:
80002ac4:	27bdffe0 	addiu	sp,sp,-32
80002ac8:	afbf001c 	sw	ra,28(sp)
80002acc:	afbe0018 	sw	s8,24(sp)
80002ad0:	03a0f025 	move	s8,sp
80002ad4:	afc00010 	sw	zero,16(s8)
80002ad8:	10000018 	b	80002b3c <init_slab+0x78>
80002adc:	00000000 	nop
80002ae0:	8fc40010 	lw	a0,16(s8)
80002ae4:	00801825 	move	v1,a0
80002ae8:	00031080 	sll	v0,v1,0x2
80002aec:	00401825 	move	v1,v0
80002af0:	00031080 	sll	v0,v1,0x2
80002af4:	00431023 	subu	v0,v0,v1
80002af8:	00441021 	addu	v0,v0,a0
80002afc:	00021080 	sll	v0,v0,0x2
80002b00:	3c038001 	lui	v1,0x8001
80002b04:	2463ffa4 	addiu	v1,v1,-92
80002b08:	00432021 	addu	a0,v0,v1
80002b0c:	3c028000 	lui	v0,0x8000
80002b10:	8fc30010 	lw	v1,16(s8)
80002b14:	00031880 	sll	v1,v1,0x2
80002b18:	24427bac 	addiu	v0,v0,31660
80002b1c:	00621021 	addu	v0,v1,v0
80002b20:	8c420000 	lw	v0,0(v0)
80002b24:	00402825 	move	a1,v0
80002b28:	0c000a85 	jal	80002a14 <init_each_slab>
80002b2c:	00000000 	nop
80002b30:	8fc20010 	lw	v0,16(s8)
80002b34:	24420001 	addiu	v0,v0,1
80002b38:	afc20010 	sw	v0,16(s8)
80002b3c:	8fc20010 	lw	v0,16(s8)
80002b40:	2c42000c 	sltiu	v0,v0,12
80002b44:	1440ffe6 	bnez	v0,80002ae0 <init_slab+0x1c>
80002b48:	00000000 	nop
80002b4c:	03c0e825 	move	sp,s8
80002b50:	8fbf001c 	lw	ra,28(sp)
80002b54:	8fbe0018 	lw	s8,24(sp)
80002b58:	27bd0020 	addiu	sp,sp,32
80002b5c:	03e00008 	jr	ra
80002b60:	00000000 	nop

80002b64 <format_slabpage>:
80002b64:	27bdffe0 	addiu	sp,sp,-32
80002b68:	afbe001c 	sw	s8,28(sp)
80002b6c:	03a0f025 	move	s8,sp
80002b70:	afc40020 	sw	a0,32(s8)
80002b74:	afc50024 	sw	a1,36(s8)
80002b78:	8fc20024 	lw	v0,36(s8)
80002b7c:	8f838094 	lw	v1,-32620(gp)
80002b80:	00431023 	subu	v0,v0,v1
80002b84:	00021883 	sra	v1,v0,0x2
80002b88:	3c02b6db 	lui	v0,0xb6db
80002b8c:	34426db7 	ori	v0,v0,0x6db7
80002b90:	70621002 	mul	v0,v1,v0
80002b94:	00021300 	sll	v0,v0,0xc
80002b98:	00401825 	move	v1,v0
80002b9c:	3c028000 	lui	v0,0x8000
80002ba0:	00621025 	or	v0,v1,v0
80002ba4:	afc20000 	sw	v0,0(s8)
80002ba8:	8fc20000 	lw	v0,0(s8)
80002bac:	afc20008 	sw	v0,8(s8)
80002bb0:	24021000 	li	v0,4096
80002bb4:	afc20004 	sw	v0,4(s8)
80002bb8:	8fc20000 	lw	v0,0(s8)
80002bbc:	24420008 	addiu	v0,v0,8
80002bc0:	afc20000 	sw	v0,0(s8)
80002bc4:	8fc20004 	lw	v0,4(s8)
80002bc8:	2442fff8 	addiu	v0,v0,-8
80002bcc:	afc20004 	sw	v0,4(s8)
80002bd0:	8fc20000 	lw	v0,0(s8)
80002bd4:	afc20010 	sw	v0,16(s8)
80002bd8:	8fc20024 	lw	v0,36(s8)
80002bdc:	3c032000 	lui	v1,0x2000
80002be0:	ac430000 	sw	v1,0(v0)
80002be4:	8fc20020 	lw	v0,32(s8)
80002be8:	8c420008 	lw	v0,8(v0)
80002bec:	8fc30000 	lw	v1,0(s8)
80002bf0:	00621021 	addu	v0,v1,v0
80002bf4:	afc2000c 	sw	v0,12(s8)
80002bf8:	8fc20020 	lw	v0,32(s8)
80002bfc:	8c420000 	lw	v0,0(v0)
80002c00:	8fc30000 	lw	v1,0(s8)
80002c04:	00621021 	addu	v0,v1,v0
80002c08:	afc20000 	sw	v0,0(s8)
80002c0c:	8fc30000 	lw	v1,0(s8)
80002c10:	8fc2000c 	lw	v0,12(s8)
80002c14:	ac430000 	sw	v1,0(v0)
80002c18:	8fc20020 	lw	v0,32(s8)
80002c1c:	8c420000 	lw	v0,0(v0)
80002c20:	8fc30004 	lw	v1,4(s8)
80002c24:	00621023 	subu	v0,v1,v0
80002c28:	afc20004 	sw	v0,4(s8)
80002c2c:	8fc20020 	lw	v0,32(s8)
80002c30:	8c430000 	lw	v1,0(v0)
80002c34:	8fc20004 	lw	v0,4(s8)
80002c38:	0043102b 	sltu	v0,v0,v1
80002c3c:	1040ffe9 	beqz	v0,80002be4 <format_slabpage+0x80>
80002c40:	00000000 	nop
80002c44:	8fc30000 	lw	v1,0(s8)
80002c48:	2402f000 	li	v0,-4096
80002c4c:	00621824 	and	v1,v1,v0
80002c50:	8fc2000c 	lw	v0,12(s8)
80002c54:	ac430000 	sw	v1,0(v0)
80002c58:	8fc20008 	lw	v0,8(s8)
80002c5c:	8fc3000c 	lw	v1,12(s8)
80002c60:	ac430000 	sw	v1,0(v0)
80002c64:	8fc20008 	lw	v0,8(s8)
80002c68:	ac400004 	sw	zero,4(v0)
80002c6c:	8fc20020 	lw	v0,32(s8)
80002c70:	8fc30024 	lw	v1,36(s8)
80002c74:	ac430020 	sw	v1,32(v0)
80002c78:	8fc20020 	lw	v0,32(s8)
80002c7c:	27c30010 	addiu	v1,s8,16
80002c80:	ac43001c 	sw	v1,28(v0)
80002c84:	8fc20024 	lw	v0,36(s8)
80002c88:	8fc30020 	lw	v1,32(s8)
80002c8c:	ac430010 	sw	v1,16(v0)
80002c90:	8fc20020 	lw	v0,32(s8)
80002c94:	8c43001c 	lw	v1,28(v0)
80002c98:	8fc20024 	lw	v0,36(s8)
80002c9c:	ac430018 	sw	v1,24(v0)
80002ca0:	03c0e825 	move	sp,s8
80002ca4:	8fbe001c 	lw	s8,28(sp)
80002ca8:	27bd0020 	addiu	sp,sp,32
80002cac:	03e00008 	jr	ra
80002cb0:	00000000 	nop

80002cb4 <slab_alloc>:
80002cb4:	27bdffd8 	addiu	sp,sp,-40
80002cb8:	afbf0024 	sw	ra,36(sp)
80002cbc:	afbe0020 	sw	s8,32(sp)
80002cc0:	03a0f025 	move	s8,sp
80002cc4:	afc40028 	sw	a0,40(s8)
80002cc8:	afc00010 	sw	zero,16(s8)
80002ccc:	8fc20028 	lw	v0,40(s8)
80002cd0:	8c42001c 	lw	v0,28(v0)
80002cd4:	10400005 	beqz	v0,80002cec <slab_alloc+0x38>
80002cd8:	00000000 	nop
80002cdc:	8fc20028 	lw	v0,40(s8)
80002ce0:	8c42001c 	lw	v0,28(v0)
80002ce4:	8c420000 	lw	v0,0(v0)
80002ce8:	afc20010 	sw	v0,16(s8)
80002cec:	3c028000 	lui	v0,0x8000
80002cf0:	24447660 	addiu	a0,v0,30304
80002cf4:	8fc50010 	lw	a1,16(s8)
80002cf8:	0c00152c 	jal	800054b0 <kernel_printf>
80002cfc:	00000000 	nop
80002d00:	8fc20010 	lw	v0,16(s8)
80002d04:	00402025 	move	a0,v0
80002d08:	24051000 	li	a1,4096
80002d0c:	0c001944 	jal	80006510 <is_bound>
80002d10:	00000000 	nop
80002d14:	10400042 	beqz	v0,80002e20 <slab_alloc+0x16c>
80002d18:	00000000 	nop
80002d1c:	8fc20028 	lw	v0,40(s8)
80002d20:	8c420020 	lw	v0,32(v0)
80002d24:	1040000a 	beqz	v0,80002d50 <slab_alloc+0x9c>
80002d28:	00000000 	nop
80002d2c:	8fc20028 	lw	v0,40(s8)
80002d30:	8c420020 	lw	v0,32(v0)
80002d34:	24430008 	addiu	v1,v0,8
80002d38:	8fc20028 	lw	v0,40(s8)
80002d3c:	24420014 	addiu	v0,v0,20
80002d40:	00602025 	move	a0,v1
80002d44:	00402825 	move	a1,v0
80002d48:	0c0009b7 	jal	800026dc <list_add_tail>
80002d4c:	00000000 	nop
80002d50:	8fc20028 	lw	v0,40(s8)
80002d54:	2442000c 	addiu	v0,v0,12
80002d58:	00402025 	move	a0,v0
80002d5c:	0c000a0b 	jal	8000282c <list_empty>
80002d60:	00000000 	nop
80002d64:	10400018 	beqz	v0,80002dc8 <slab_alloc+0x114>
80002d68:	00000000 	nop
80002d6c:	00002025 	move	a0,zero
80002d70:	0c001054 	jal	80004150 <__alloc_pages>
80002d74:	00000000 	nop
80002d78:	afc20014 	sw	v0,20(s8)
80002d7c:	8fc20014 	lw	v0,20(s8)
80002d80:	14400007 	bnez	v0,80002da0 <slab_alloc+0xec>
80002d84:	00000000 	nop
80002d88:	3c028000 	lui	v0,0x8000
80002d8c:	2444767c 	addiu	a0,v0,30332
80002d90:	0c00152c 	jal	800054b0 <kernel_printf>
80002d94:	00000000 	nop
80002d98:	1000ffff 	b	80002d98 <slab_alloc+0xe4>
80002d9c:	00000000 	nop
80002da0:	8fc40028 	lw	a0,40(s8)
80002da4:	8fc50014 	lw	a1,20(s8)
80002da8:	0c000ad9 	jal	80002b64 <format_slabpage>
80002dac:	00000000 	nop
80002db0:	8fc20028 	lw	v0,40(s8)
80002db4:	8c42001c 	lw	v0,28(v0)
80002db8:	8c420000 	lw	v0,0(v0)
80002dbc:	afc20010 	sw	v0,16(s8)
80002dc0:	1000ffcf 	b	80002d00 <slab_alloc+0x4c>
80002dc4:	00000000 	nop
80002dc8:	8fc20028 	lw	v0,40(s8)
80002dcc:	8c420010 	lw	v0,16(v0)
80002dd0:	2442fff8 	addiu	v0,v0,-8
80002dd4:	00401825 	move	v1,v0
80002dd8:	8fc20028 	lw	v0,40(s8)
80002ddc:	ac430020 	sw	v1,32(v0)
80002de0:	8fc20028 	lw	v0,40(s8)
80002de4:	8c420010 	lw	v0,16(v0)
80002de8:	00402025 	move	a0,v0
80002dec:	0c0009da 	jal	80002768 <list_del>
80002df0:	00000000 	nop
80002df4:	8fc20028 	lw	v0,40(s8)
80002df8:	8c420020 	lw	v0,32(v0)
80002dfc:	8c430018 	lw	v1,24(v0)
80002e00:	8fc20028 	lw	v0,40(s8)
80002e04:	ac43001c 	sw	v1,28(v0)
80002e08:	8fc20028 	lw	v0,40(s8)
80002e0c:	8c42001c 	lw	v0,28(v0)
80002e10:	8c420000 	lw	v0,0(v0)
80002e14:	afc20010 	sw	v0,16(s8)
80002e18:	1000ffb9 	b	80002d00 <slab_alloc+0x4c>
80002e1c:	00000000 	nop
80002e20:	8fc20028 	lw	v0,40(s8)
80002e24:	8c420008 	lw	v0,8(v0)
80002e28:	8fc30010 	lw	v1,16(s8)
80002e2c:	00621821 	addu	v1,v1,v0
80002e30:	8fc20028 	lw	v0,40(s8)
80002e34:	ac43001c 	sw	v1,28(v0)
80002e38:	8fc20028 	lw	v0,40(s8)
80002e3c:	8c420020 	lw	v0,32(v0)
80002e40:	8fc30028 	lw	v1,40(s8)
80002e44:	8c63001c 	lw	v1,28(v1)
80002e48:	ac430018 	sw	v1,24(v0)
80002e4c:	8fc20028 	lw	v0,40(s8)
80002e50:	8c420020 	lw	v0,32(v0)
80002e54:	00401825 	move	v1,v0
80002e58:	8f828094 	lw	v0,-32620(gp)
80002e5c:	00621023 	subu	v0,v1,v0
80002e60:	00021883 	sra	v1,v0,0x2
80002e64:	3c02b6db 	lui	v0,0xb6db
80002e68:	34426db7 	ori	v0,v0,0x6db7
80002e6c:	70621002 	mul	v0,v1,v0
80002e70:	00021300 	sll	v0,v0,0xc
80002e74:	00401825 	move	v1,v0
80002e78:	3c028000 	lui	v0,0x8000
80002e7c:	00621025 	or	v0,v1,v0
80002e80:	afc20018 	sw	v0,24(s8)
80002e84:	8fc20018 	lw	v0,24(s8)
80002e88:	8c420004 	lw	v0,4(v0)
80002e8c:	24430001 	addiu	v1,v0,1
80002e90:	8fc20018 	lw	v0,24(s8)
80002e94:	ac430004 	sw	v1,4(v0)
80002e98:	8fc20028 	lw	v0,40(s8)
80002e9c:	8c420020 	lw	v0,32(v0)
80002ea0:	8c420018 	lw	v0,24(v0)
80002ea4:	8c420000 	lw	v0,0(v0)
80002ea8:	00402025 	move	a0,v0
80002eac:	24051000 	li	a1,4096
80002eb0:	0c001944 	jal	80006510 <is_bound>
80002eb4:	00000000 	nop
80002eb8:	1040000f 	beqz	v0,80002ef8 <slab_alloc+0x244>
80002ebc:	00000000 	nop
80002ec0:	8fc20028 	lw	v0,40(s8)
80002ec4:	8c420020 	lw	v0,32(v0)
80002ec8:	24430008 	addiu	v1,v0,8
80002ecc:	8fc20028 	lw	v0,40(s8)
80002ed0:	24420014 	addiu	v0,v0,20
80002ed4:	00602025 	move	a0,v1
80002ed8:	00402825 	move	a1,v0
80002edc:	0c0009b7 	jal	800026dc <list_add_tail>
80002ee0:	00000000 	nop
80002ee4:	8fc20028 	lw	v0,40(s8)
80002ee8:	2442001c 	addiu	v0,v0,28
80002eec:	00402025 	move	a0,v0
80002ef0:	0c000a64 	jal	80002990 <init_kmem_cpu>
80002ef4:	00000000 	nop
80002ef8:	8fc20010 	lw	v0,16(s8)
80002efc:	03c0e825 	move	sp,s8
80002f00:	8fbf0024 	lw	ra,36(sp)
80002f04:	8fbe0020 	lw	s8,32(sp)
80002f08:	27bd0028 	addiu	sp,sp,40
80002f0c:	03e00008 	jr	ra
80002f10:	00000000 	nop

80002f14 <slab_free>:
80002f14:	27bdffd8 	addiu	sp,sp,-40
80002f18:	afbf0024 	sw	ra,36(sp)
80002f1c:	afbe0020 	sw	s8,32(sp)
80002f20:	03a0f025 	move	s8,sp
80002f24:	afc40028 	sw	a0,40(s8)
80002f28:	afc5002c 	sw	a1,44(s8)
80002f2c:	8fc40028 	lw	a0,40(s8)
80002f30:	8fc5002c 	lw	a1,44(s8)
80002f34:	0c000a1a 	jal	80002868 <judge_slab_free>
80002f38:	00000000 	nop
80002f3c:	10400007 	beqz	v0,80002f5c <slab_free+0x48>
80002f40:	00000000 	nop
80002f44:	3c028000 	lui	v0,0x8000
80002f48:	244476ac 	addiu	a0,v0,30380
80002f4c:	0c00152c 	jal	800054b0 <kernel_printf>
80002f50:	00000000 	nop
80002f54:	1000007e 	b	80003150 <slab_free+0x23c>
80002f58:	00000000 	nop
80002f5c:	8f838094 	lw	v1,-32620(gp)
80002f60:	8fc2002c 	lw	v0,44(s8)
80002f64:	00021302 	srl	v0,v0,0xc
80002f68:	00021080 	sll	v0,v0,0x2
80002f6c:	000220c0 	sll	a0,v0,0x3
80002f70:	00821023 	subu	v0,a0,v0
80002f74:	00621021 	addu	v0,v1,v0
80002f78:	afc20010 	sw	v0,16(s8)
80002f7c:	8fc3002c 	lw	v1,44(s8)
80002f80:	3c028000 	lui	v0,0x8000
80002f84:	00621025 	or	v0,v1,v0
80002f88:	afc2002c 	sw	v0,44(s8)
80002f8c:	3c028000 	lui	v0,0x8000
80002f90:	244476e0 	addiu	a0,v0,30432
80002f94:	8fc5002c 	lw	a1,44(s8)
80002f98:	0c00152c 	jal	800054b0 <kernel_printf>
80002f9c:	00000000 	nop
80002fa0:	8fc20010 	lw	v0,16(s8)
80002fa4:	8f838094 	lw	v1,-32620(gp)
80002fa8:	00431023 	subu	v0,v0,v1
80002fac:	00021883 	sra	v1,v0,0x2
80002fb0:	3c02b6db 	lui	v0,0xb6db
80002fb4:	34426db7 	ori	v0,v0,0x6db7
80002fb8:	70621002 	mul	v0,v1,v0
80002fbc:	00021300 	sll	v0,v0,0xc
80002fc0:	00401825 	move	v1,v0
80002fc4:	3c028000 	lui	v0,0x8000
80002fc8:	00621025 	or	v0,v1,v0
80002fcc:	afc20014 	sw	v0,20(s8)
80002fd0:	8fc20014 	lw	v0,20(s8)
80002fd4:	8c420004 	lw	v0,4(v0)
80002fd8:	14400007 	bnez	v0,80002ff8 <slab_free+0xe4>
80002fdc:	00000000 	nop
80002fe0:	3c028000 	lui	v0,0x8000
80002fe4:	244476f4 	addiu	a0,v0,30452
80002fe8:	0c00152c 	jal	800054b0 <kernel_printf>
80002fec:	00000000 	nop
80002ff0:	1000ffff 	b	80002ff0 <slab_free+0xdc>
80002ff4:	00000000 	nop
80002ff8:	8fc20028 	lw	v0,40(s8)
80002ffc:	8c420008 	lw	v0,8(v0)
80003000:	8fc3002c 	lw	v1,44(s8)
80003004:	00621021 	addu	v0,v1,v0
80003008:	afc20018 	sw	v0,24(s8)
8000300c:	8fc20014 	lw	v0,20(s8)
80003010:	8c420000 	lw	v0,0(v0)
80003014:	8c430000 	lw	v1,0(v0)
80003018:	8fc20018 	lw	v0,24(s8)
8000301c:	ac430000 	sw	v1,0(v0)
80003020:	8fc20014 	lw	v0,20(s8)
80003024:	8c420000 	lw	v0,0(v0)
80003028:	8fc3002c 	lw	v1,44(s8)
8000302c:	ac430000 	sw	v1,0(v0)
80003030:	8fc20014 	lw	v0,20(s8)
80003034:	8fc30018 	lw	v1,24(s8)
80003038:	ac430000 	sw	v1,0(v0)
8000303c:	8fc20014 	lw	v0,20(s8)
80003040:	8c420004 	lw	v0,4(v0)
80003044:	2443ffff 	addiu	v1,v0,-1
80003048:	8fc20014 	lw	v0,20(s8)
8000304c:	ac430004 	sw	v1,4(v0)
80003050:	8fc20010 	lw	v0,16(s8)
80003054:	24420008 	addiu	v0,v0,8
80003058:	00402025 	move	a0,v0
8000305c:	0c000a0b 	jal	8000282c <list_empty>
80003060:	00000000 	nop
80003064:	10400003 	beqz	v0,80003074 <slab_free+0x160>
80003068:	00000000 	nop
8000306c:	10000038 	b	80003150 <slab_free+0x23c>
80003070:	00000000 	nop
80003074:	3c028000 	lui	v0,0x8000
80003078:	24447710 	addiu	a0,v0,30480
8000307c:	8fc5002c 	lw	a1,44(s8)
80003080:	0c00152c 	jal	800054b0 <kernel_printf>
80003084:	00000000 	nop
80003088:	8fc20014 	lw	v0,20(s8)
8000308c:	8c420004 	lw	v0,4(v0)
80003090:	14400022 	bnez	v0,8000311c <slab_free+0x208>
80003094:	00000000 	nop
80003098:	8fc20010 	lw	v0,16(s8)
8000309c:	24420008 	addiu	v0,v0,8
800030a0:	00402025 	move	a0,v0
800030a4:	0c0009f5 	jal	800027d4 <list_del_init>
800030a8:	00000000 	nop
800030ac:	3c028000 	lui	v0,0x8000
800030b0:	2444773c 	addiu	a0,v0,30524
800030b4:	0c00152c 	jal	800054b0 <kernel_printf>
800030b8:	00000000 	nop
800030bc:	8fc40010 	lw	a0,16(s8)
800030c0:	00002825 	move	a1,zero
800030c4:	0c000f9f 	jal	80003e7c <__free_pages>
800030c8:	00000000 	nop
800030cc:	8fc20028 	lw	v0,40(s8)
800030d0:	8c430020 	lw	v1,32(v0)
800030d4:	8fc20010 	lw	v0,16(s8)
800030d8:	1462000a 	bne	v1,v0,80003104 <slab_free+0x1f0>
800030dc:	00000000 	nop
800030e0:	3c028000 	lui	v0,0x8000
800030e4:	24447774 	addiu	a0,v0,30580
800030e8:	0c00152c 	jal	800054b0 <kernel_printf>
800030ec:	00000000 	nop
800030f0:	8fc20028 	lw	v0,40(s8)
800030f4:	2442001c 	addiu	v0,v0,28
800030f8:	00402025 	move	a0,v0
800030fc:	0c000a64 	jal	80002990 <init_kmem_cpu>
80003100:	00000000 	nop
80003104:	3c028000 	lui	v0,0x8000
80003108:	24447790 	addiu	a0,v0,30608
8000310c:	0c00152c 	jal	800054b0 <kernel_printf>
80003110:	00000000 	nop
80003114:	1000000e 	b	80003150 <slab_free+0x23c>
80003118:	00000000 	nop
8000311c:	8fc20010 	lw	v0,16(s8)
80003120:	24420008 	addiu	v0,v0,8
80003124:	00402025 	move	a0,v0
80003128:	0c0009f5 	jal	800027d4 <list_del_init>
8000312c:	00000000 	nop
80003130:	8fc20010 	lw	v0,16(s8)
80003134:	24430008 	addiu	v1,v0,8
80003138:	8fc20028 	lw	v0,40(s8)
8000313c:	2442000c 	addiu	v0,v0,12
80003140:	00602025 	move	a0,v1
80003144:	00402825 	move	a1,v0
80003148:	0c0009b7 	jal	800026dc <list_add_tail>
8000314c:	00000000 	nop
80003150:	03c0e825 	move	sp,s8
80003154:	8fbf0024 	lw	ra,36(sp)
80003158:	8fbe0020 	lw	s8,32(sp)
8000315c:	27bd0028 	addiu	sp,sp,40
80003160:	03e00008 	jr	ra
80003164:	00000000 	nop

80003168 <get_slab>:
80003168:	27bdffe8 	addiu	sp,sp,-24
8000316c:	afbe0014 	sw	s8,20(sp)
80003170:	03a0f025 	move	s8,sp
80003174:	afc40018 	sw	a0,24(s8)
80003178:	2402000c 	li	v0,12
8000317c:	afc2000c 	sw	v0,12(s8)
80003180:	24020800 	li	v0,2048
80003184:	afc20004 	sw	v0,4(s8)
80003188:	2402000c 	li	v0,12
8000318c:	afc20008 	sw	v0,8(s8)
80003190:	afc00000 	sw	zero,0(s8)
80003194:	10000033 	b	80003264 <get_slab+0xfc>
80003198:	00000000 	nop
8000319c:	3c058001 	lui	a1,0x8001
800031a0:	8fc40000 	lw	a0,0(s8)
800031a4:	00801825 	move	v1,a0
800031a8:	00031080 	sll	v0,v1,0x2
800031ac:	00401825 	move	v1,v0
800031b0:	00031080 	sll	v0,v1,0x2
800031b4:	00431023 	subu	v0,v0,v1
800031b8:	00441021 	addu	v0,v0,a0
800031bc:	00021080 	sll	v0,v0,0x2
800031c0:	24a3ffa4 	addiu	v1,a1,-92
800031c4:	00431021 	addu	v0,v0,v1
800031c8:	8c430004 	lw	v1,4(v0)
800031cc:	8fc20018 	lw	v0,24(s8)
800031d0:	0062102b 	sltu	v0,v1,v0
800031d4:	14400020 	bnez	v0,80003258 <get_slab+0xf0>
800031d8:	00000000 	nop
800031dc:	3c058001 	lui	a1,0x8001
800031e0:	8fc40000 	lw	a0,0(s8)
800031e4:	00801825 	move	v1,a0
800031e8:	00031080 	sll	v0,v1,0x2
800031ec:	00401825 	move	v1,v0
800031f0:	00031080 	sll	v0,v1,0x2
800031f4:	00431023 	subu	v0,v0,v1
800031f8:	00441021 	addu	v0,v0,a0
800031fc:	00021080 	sll	v0,v0,0x2
80003200:	24a3ffa4 	addiu	v1,a1,-92
80003204:	00431021 	addu	v0,v0,v1
80003208:	8c430004 	lw	v1,4(v0)
8000320c:	8fc20004 	lw	v0,4(s8)
80003210:	0062102b 	sltu	v0,v1,v0
80003214:	10400010 	beqz	v0,80003258 <get_slab+0xf0>
80003218:	00000000 	nop
8000321c:	3c058001 	lui	a1,0x8001
80003220:	8fc40000 	lw	a0,0(s8)
80003224:	00801825 	move	v1,a0
80003228:	00031080 	sll	v0,v1,0x2
8000322c:	00401825 	move	v1,v0
80003230:	00031080 	sll	v0,v1,0x2
80003234:	00431023 	subu	v0,v0,v1
80003238:	00441021 	addu	v0,v0,a0
8000323c:	00021080 	sll	v0,v0,0x2
80003240:	24a3ffa4 	addiu	v1,a1,-92
80003244:	00431021 	addu	v0,v0,v1
80003248:	8c420004 	lw	v0,4(v0)
8000324c:	afc20004 	sw	v0,4(s8)
80003250:	8fc20000 	lw	v0,0(s8)
80003254:	afc20008 	sw	v0,8(s8)
80003258:	8fc20000 	lw	v0,0(s8)
8000325c:	24420001 	addiu	v0,v0,1
80003260:	afc20000 	sw	v0,0(s8)
80003264:	8fc30000 	lw	v1,0(s8)
80003268:	8fc2000c 	lw	v0,12(s8)
8000326c:	0062102b 	sltu	v0,v1,v0
80003270:	1440ffca 	bnez	v0,8000319c <get_slab+0x34>
80003274:	00000000 	nop
80003278:	8fc20008 	lw	v0,8(s8)
8000327c:	03c0e825 	move	sp,s8
80003280:	8fbe0014 	lw	s8,20(sp)
80003284:	27bd0018 	addiu	sp,sp,24
80003288:	03e00008 	jr	ra
8000328c:	00000000 	nop

80003290 <kmalloc>:
80003290:	27bdffe0 	addiu	sp,sp,-32
80003294:	afbf001c 	sw	ra,28(sp)
80003298:	afbe0018 	sw	s8,24(sp)
8000329c:	03a0f025 	move	s8,sp
800032a0:	afc40020 	sw	a0,32(s8)
800032a4:	8fc20020 	lw	v0,32(s8)
800032a8:	14400004 	bnez	v0,800032bc <kmalloc+0x2c>
800032ac:	00000000 	nop
800032b0:	00001025 	move	v0,zero
800032b4:	10000048 	b	800033d8 <kmalloc+0x148>
800032b8:	00000000 	nop
800032bc:	3c028001 	lui	v0,0x8001
800032c0:	2442ffa4 	addiu	v0,v0,-92
800032c4:	8c430240 	lw	v1,576(v0)
800032c8:	8fc20020 	lw	v0,32(s8)
800032cc:	0062102b 	sltu	v0,v1,v0
800032d0:	10400022 	beqz	v0,8000335c <kmalloc+0xcc>
800032d4:	00000000 	nop
800032d8:	8fc20020 	lw	v0,32(s8)
800032dc:	24420fff 	addiu	v0,v0,4095
800032e0:	afc20020 	sw	v0,32(s8)
800032e4:	8fc30020 	lw	v1,32(s8)
800032e8:	2402f000 	li	v0,-4096
800032ec:	00621024 	and	v0,v1,v0
800032f0:	afc20020 	sw	v0,32(s8)
800032f4:	afc00010 	sw	zero,16(s8)
800032f8:	8fc20020 	lw	v0,32(s8)
800032fc:	00021302 	srl	v0,v0,0xc
80003300:	afc20020 	sw	v0,32(s8)
80003304:	8fc20020 	lw	v0,32(s8)
80003308:	2442ffff 	addiu	v0,v0,-1
8000330c:	afc20020 	sw	v0,32(s8)
80003310:	10000007 	b	80003330 <kmalloc+0xa0>
80003314:	00000000 	nop
80003318:	8fc20020 	lw	v0,32(s8)
8000331c:	00021042 	srl	v0,v0,0x1
80003320:	afc20020 	sw	v0,32(s8)
80003324:	8fc20010 	lw	v0,16(s8)
80003328:	24420001 	addiu	v0,v0,1
8000332c:	afc20010 	sw	v0,16(s8)
80003330:	8fc20020 	lw	v0,32(s8)
80003334:	1440fff8 	bnez	v0,80003318 <kmalloc+0x88>
80003338:	00000000 	nop
8000333c:	8fc40010 	lw	a0,16(s8)
80003340:	0c0010dc 	jal	80004370 <alloc_pages>
80003344:	00000000 	nop
80003348:	00401825 	move	v1,v0
8000334c:	3c028000 	lui	v0,0x8000
80003350:	00621025 	or	v0,v1,v0
80003354:	10000020 	b	800033d8 <kmalloc+0x148>
80003358:	00000000 	nop
8000335c:	8fc40020 	lw	a0,32(s8)
80003360:	0c000c5a 	jal	80003168 <get_slab>
80003364:	00000000 	nop
80003368:	afc20014 	sw	v0,20(s8)
8000336c:	8fc20014 	lw	v0,20(s8)
80003370:	2c42000c 	sltiu	v0,v0,12
80003374:	14400007 	bnez	v0,80003394 <kmalloc+0x104>
80003378:	00000000 	nop
8000337c:	3c028000 	lui	v0,0x8000
80003380:	244477a8 	addiu	a0,v0,30632
80003384:	0c00152c 	jal	800054b0 <kernel_printf>
80003388:	00000000 	nop
8000338c:	1000ffff 	b	8000338c <kmalloc+0xfc>
80003390:	00000000 	nop
80003394:	8fc40014 	lw	a0,20(s8)
80003398:	00801825 	move	v1,a0
8000339c:	00031080 	sll	v0,v1,0x2
800033a0:	00401825 	move	v1,v0
800033a4:	00031080 	sll	v0,v1,0x2
800033a8:	00431023 	subu	v0,v0,v1
800033ac:	00441021 	addu	v0,v0,a0
800033b0:	00021080 	sll	v0,v0,0x2
800033b4:	3c038001 	lui	v1,0x8001
800033b8:	2463ffa4 	addiu	v1,v1,-92
800033bc:	00431021 	addu	v0,v0,v1
800033c0:	00402025 	move	a0,v0
800033c4:	0c000b2d 	jal	80002cb4 <slab_alloc>
800033c8:	00000000 	nop
800033cc:	00401825 	move	v1,v0
800033d0:	3c028000 	lui	v0,0x8000
800033d4:	00621025 	or	v0,v1,v0
800033d8:	03c0e825 	move	sp,s8
800033dc:	8fbf001c 	lw	ra,28(sp)
800033e0:	8fbe0018 	lw	s8,24(sp)
800033e4:	27bd0020 	addiu	sp,sp,32
800033e8:	03e00008 	jr	ra
800033ec:	00000000 	nop

800033f0 <kfree>:
800033f0:	27bdffe0 	addiu	sp,sp,-32
800033f4:	afbf001c 	sw	ra,28(sp)
800033f8:	afbe0018 	sw	s8,24(sp)
800033fc:	03a0f025 	move	s8,sp
80003400:	afc40020 	sw	a0,32(s8)
80003404:	8fc30020 	lw	v1,32(s8)
80003408:	3c027fff 	lui	v0,0x7fff
8000340c:	3442ffff 	ori	v0,v0,0xffff
80003410:	00621024 	and	v0,v1,v0
80003414:	afc20020 	sw	v0,32(s8)
80003418:	8f838094 	lw	v1,-32620(gp)
8000341c:	8fc20020 	lw	v0,32(s8)
80003420:	00021302 	srl	v0,v0,0xc
80003424:	00021080 	sll	v0,v0,0x2
80003428:	000220c0 	sll	a0,v0,0x3
8000342c:	00821023 	subu	v0,a0,v0
80003430:	00621021 	addu	v0,v1,v0
80003434:	afc20010 	sw	v0,16(s8)
80003438:	8fc20010 	lw	v0,16(s8)
8000343c:	8c430000 	lw	v1,0(v0)
80003440:	3c022000 	lui	v0,0x2000
80003444:	1062000d 	beq	v1,v0,8000347c <kfree+0x8c>
80003448:	00000000 	nop
8000344c:	8fc30020 	lw	v1,32(s8)
80003450:	2402f000 	li	v0,-4096
80003454:	00621024 	and	v0,v1,v0
80003458:	00401825 	move	v1,v0
8000345c:	8fc20010 	lw	v0,16(s8)
80003460:	8c420014 	lw	v0,20(v0)
80003464:	00602025 	move	a0,v1
80003468:	00402825 	move	a1,v0
8000346c:	0c0010f9 	jal	800043e4 <free_pages>
80003470:	00000000 	nop
80003474:	10000008 	b	80003498 <kfree+0xa8>
80003478:	00000000 	nop
8000347c:	8fc20010 	lw	v0,16(s8)
80003480:	8c420010 	lw	v0,16(v0)
80003484:	00402025 	move	a0,v0
80003488:	8fc50020 	lw	a1,32(s8)
8000348c:	0c000bc5 	jal	80002f14 <slab_free>
80003490:	00000000 	nop
80003494:	00000000 	nop
80003498:	03c0e825 	move	sp,s8
8000349c:	8fbf001c 	lw	ra,28(sp)
800034a0:	8fbe0018 	lw	s8,24(sp)
800034a4:	27bd0020 	addiu	sp,sp,32
800034a8:	03e00008 	jr	ra
800034ac:	00000000 	nop

800034b0 <INIT_LIST_HEAD>:
800034b0:	27bdfff8 	addiu	sp,sp,-8
800034b4:	afbe0004 	sw	s8,4(sp)
800034b8:	03a0f025 	move	s8,sp
800034bc:	afc40008 	sw	a0,8(s8)
800034c0:	8fc20008 	lw	v0,8(s8)
800034c4:	8fc30008 	lw	v1,8(s8)
800034c8:	ac430000 	sw	v1,0(v0)
800034cc:	8fc20008 	lw	v0,8(s8)
800034d0:	8fc30008 	lw	v1,8(s8)
800034d4:	ac430004 	sw	v1,4(v0)
800034d8:	03c0e825 	move	sp,s8
800034dc:	8fbe0004 	lw	s8,4(sp)
800034e0:	27bd0008 	addiu	sp,sp,8
800034e4:	03e00008 	jr	ra
800034e8:	00000000 	nop

800034ec <__list_add>:
800034ec:	27bdfff8 	addiu	sp,sp,-8
800034f0:	afbe0004 	sw	s8,4(sp)
800034f4:	03a0f025 	move	s8,sp
800034f8:	afc40008 	sw	a0,8(s8)
800034fc:	afc5000c 	sw	a1,12(s8)
80003500:	afc60010 	sw	a2,16(s8)
80003504:	8fc20008 	lw	v0,8(s8)
80003508:	8fc30010 	lw	v1,16(s8)
8000350c:	ac430004 	sw	v1,4(v0)
80003510:	8fc20008 	lw	v0,8(s8)
80003514:	8fc3000c 	lw	v1,12(s8)
80003518:	ac430000 	sw	v1,0(v0)
8000351c:	8fc2000c 	lw	v0,12(s8)
80003520:	8fc30008 	lw	v1,8(s8)
80003524:	ac430004 	sw	v1,4(v0)
80003528:	8fc20010 	lw	v0,16(s8)
8000352c:	8fc30008 	lw	v1,8(s8)
80003530:	ac430000 	sw	v1,0(v0)
80003534:	03c0e825 	move	sp,s8
80003538:	8fbe0004 	lw	s8,4(sp)
8000353c:	27bd0008 	addiu	sp,sp,8
80003540:	03e00008 	jr	ra
80003544:	00000000 	nop

80003548 <list_add>:
80003548:	27bdffe8 	addiu	sp,sp,-24
8000354c:	afbf0014 	sw	ra,20(sp)
80003550:	afbe0010 	sw	s8,16(sp)
80003554:	03a0f025 	move	s8,sp
80003558:	afc40018 	sw	a0,24(s8)
8000355c:	afc5001c 	sw	a1,28(s8)
80003560:	8fc2001c 	lw	v0,28(s8)
80003564:	8c420004 	lw	v0,4(v0)
80003568:	8fc40018 	lw	a0,24(s8)
8000356c:	8fc5001c 	lw	a1,28(s8)
80003570:	00403025 	move	a2,v0
80003574:	0c000d3b 	jal	800034ec <__list_add>
80003578:	00000000 	nop
8000357c:	03c0e825 	move	sp,s8
80003580:	8fbf0014 	lw	ra,20(sp)
80003584:	8fbe0010 	lw	s8,16(sp)
80003588:	27bd0018 	addiu	sp,sp,24
8000358c:	03e00008 	jr	ra
80003590:	00000000 	nop

80003594 <__list_del>:
80003594:	27bdfff8 	addiu	sp,sp,-8
80003598:	afbe0004 	sw	s8,4(sp)
8000359c:	03a0f025 	move	s8,sp
800035a0:	afc40008 	sw	a0,8(s8)
800035a4:	afc5000c 	sw	a1,12(s8)
800035a8:	8fc20008 	lw	v0,8(s8)
800035ac:	8fc3000c 	lw	v1,12(s8)
800035b0:	ac430004 	sw	v1,4(v0)
800035b4:	8fc2000c 	lw	v0,12(s8)
800035b8:	8fc30008 	lw	v1,8(s8)
800035bc:	ac430000 	sw	v1,0(v0)
800035c0:	03c0e825 	move	sp,s8
800035c4:	8fbe0004 	lw	s8,4(sp)
800035c8:	27bd0008 	addiu	sp,sp,8
800035cc:	03e00008 	jr	ra
800035d0:	00000000 	nop

800035d4 <list_del_init>:
800035d4:	27bdffe8 	addiu	sp,sp,-24
800035d8:	afbf0014 	sw	ra,20(sp)
800035dc:	afbe0010 	sw	s8,16(sp)
800035e0:	03a0f025 	move	s8,sp
800035e4:	afc40018 	sw	a0,24(s8)
800035e8:	8fc20018 	lw	v0,24(s8)
800035ec:	8c430000 	lw	v1,0(v0)
800035f0:	8fc20018 	lw	v0,24(s8)
800035f4:	8c420004 	lw	v0,4(v0)
800035f8:	00602025 	move	a0,v1
800035fc:	00402825 	move	a1,v0
80003600:	0c000d65 	jal	80003594 <__list_del>
80003604:	00000000 	nop
80003608:	8fc40018 	lw	a0,24(s8)
8000360c:	0c000d2c 	jal	800034b0 <INIT_LIST_HEAD>
80003610:	00000000 	nop
80003614:	03c0e825 	move	sp,s8
80003618:	8fbf0014 	lw	ra,20(sp)
8000361c:	8fbe0010 	lw	s8,16(sp)
80003620:	27bd0018 	addiu	sp,sp,24
80003624:	03e00008 	jr	ra
80003628:	00000000 	nop

8000362c <list_empty>:
8000362c:	27bdfff8 	addiu	sp,sp,-8
80003630:	afbe0004 	sw	s8,4(sp)
80003634:	03a0f025 	move	s8,sp
80003638:	afc40008 	sw	a0,8(s8)
8000363c:	8fc20008 	lw	v0,8(s8)
80003640:	8c430004 	lw	v1,4(v0)
80003644:	8fc20008 	lw	v0,8(s8)
80003648:	00621026 	xor	v0,v1,v0
8000364c:	2c420001 	sltiu	v0,v0,1
80003650:	304200ff 	andi	v0,v0,0xff
80003654:	03c0e825 	move	sp,s8
80003658:	8fbe0004 	lw	s8,4(sp)
8000365c:	27bd0008 	addiu	sp,sp,8
80003660:	03e00008 	jr	ra
80003664:	00000000 	nop

80003668 <buddy_list_add>:
80003668:	27bdffa8 	addiu	sp,sp,-88
8000366c:	afbf0054 	sw	ra,84(sp)
80003670:	afbe0050 	sw	s8,80(sp)
80003674:	03a0f025 	move	s8,sp
80003678:	afc40058 	sw	a0,88(s8)
8000367c:	afc5005c 	sw	a1,92(s8)
80003680:	afc60060 	sw	a2,96(s8)
80003684:	8fc20058 	lw	v0,88(s8)
80003688:	2442fff8 	addiu	v0,v0,-8
8000368c:	afc20028 	sw	v0,40(s8)
80003690:	8fc20028 	lw	v0,40(s8)
80003694:	8f838094 	lw	v1,-32620(gp)
80003698:	00431023 	subu	v0,v0,v1
8000369c:	00021883 	sra	v1,v0,0x2
800036a0:	3c02b6db 	lui	v0,0xb6db
800036a4:	34426db7 	ori	v0,v0,0x6db7
800036a8:	70621002 	mul	v0,v1,v0
800036ac:	afc2002c 	sw	v0,44(s8)
800036b0:	8fc2005c 	lw	v0,92(s8)
800036b4:	8c430000 	lw	v1,0(v0)
800036b8:	8fc2005c 	lw	v0,92(s8)
800036bc:	14620007 	bne	v1,v0,800036dc <buddy_list_add+0x74>
800036c0:	00000000 	nop
800036c4:	8fc40058 	lw	a0,88(s8)
800036c8:	8fc5005c 	lw	a1,92(s8)
800036cc:	0c000d52 	jal	80003548 <list_add>
800036d0:	00000000 	nop
800036d4:	100000af 	b	80003994 <buddy_list_add+0x32c>
800036d8:	00000000 	nop
800036dc:	8fc20060 	lw	v0,96(s8)
800036e0:	14400057 	bnez	v0,80003840 <buddy_list_add+0x1d8>
800036e4:	00000000 	nop
800036e8:	afc00010 	sw	zero,16(s8)
800036ec:	8fc2005c 	lw	v0,92(s8)
800036f0:	8c420004 	lw	v0,4(v0)
800036f4:	afc20014 	sw	v0,20(s8)
800036f8:	8fc2005c 	lw	v0,92(s8)
800036fc:	8c420000 	lw	v0,0(v0)
80003700:	afc20030 	sw	v0,48(s8)
80003704:	8fc2005c 	lw	v0,92(s8)
80003708:	8c420004 	lw	v0,4(v0)
8000370c:	2442fff8 	addiu	v0,v0,-8
80003710:	afc20018 	sw	v0,24(s8)
80003714:	8fc2005c 	lw	v0,92(s8)
80003718:	8c420000 	lw	v0,0(v0)
8000371c:	2442fff8 	addiu	v0,v0,-8
80003720:	afc20034 	sw	v0,52(s8)
80003724:	1000001e 	b	800037a0 <buddy_list_add+0x138>
80003728:	00000000 	nop
8000372c:	8fc20018 	lw	v0,24(s8)
80003730:	8f838094 	lw	v1,-32620(gp)
80003734:	00431023 	subu	v0,v0,v1
80003738:	00021883 	sra	v1,v0,0x2
8000373c:	3c02b6db 	lui	v0,0xb6db
80003740:	34426db7 	ori	v0,v0,0x6db7
80003744:	70621002 	mul	v0,v1,v0
80003748:	afc20038 	sw	v0,56(s8)
8000374c:	8fc30038 	lw	v1,56(s8)
80003750:	8fc2002c 	lw	v0,44(s8)
80003754:	0062102b 	sltu	v0,v1,v0
80003758:	1440000b 	bnez	v0,80003788 <buddy_list_add+0x120>
8000375c:	00000000 	nop
80003760:	24020001 	li	v0,1
80003764:	afc20010 	sw	v0,16(s8)
80003768:	8fc20014 	lw	v0,20(s8)
8000376c:	8c420000 	lw	v0,0(v0)
80003770:	8fc40058 	lw	a0,88(s8)
80003774:	00402825 	move	a1,v0
80003778:	0c000d52 	jal	80003548 <list_add>
8000377c:	00000000 	nop
80003780:	1000000b 	b	800037b0 <buddy_list_add+0x148>
80003784:	00000000 	nop
80003788:	8fc20014 	lw	v0,20(s8)
8000378c:	8c420004 	lw	v0,4(v0)
80003790:	afc20014 	sw	v0,20(s8)
80003794:	8fc20014 	lw	v0,20(s8)
80003798:	2442fff8 	addiu	v0,v0,-8
8000379c:	afc20018 	sw	v0,24(s8)
800037a0:	8fc30018 	lw	v1,24(s8)
800037a4:	8fc20034 	lw	v0,52(s8)
800037a8:	1462ffe0 	bne	v1,v0,8000372c <buddy_list_add+0xc4>
800037ac:	00000000 	nop
800037b0:	8fc20010 	lw	v0,16(s8)
800037b4:	14400020 	bnez	v0,80003838 <buddy_list_add+0x1d0>
800037b8:	00000000 	nop
800037bc:	8fc20034 	lw	v0,52(s8)
800037c0:	8f838094 	lw	v1,-32620(gp)
800037c4:	00431023 	subu	v0,v0,v1
800037c8:	00021883 	sra	v1,v0,0x2
800037cc:	3c02b6db 	lui	v0,0xb6db
800037d0:	34426db7 	ori	v0,v0,0x6db7
800037d4:	70621002 	mul	v0,v1,v0
800037d8:	afc2003c 	sw	v0,60(s8)
800037dc:	8fc3003c 	lw	v1,60(s8)
800037e0:	8fc2002c 	lw	v0,44(s8)
800037e4:	0062102b 	sltu	v0,v1,v0
800037e8:	1440000b 	bnez	v0,80003818 <buddy_list_add+0x1b0>
800037ec:	00000000 	nop
800037f0:	24020001 	li	v0,1
800037f4:	afc20010 	sw	v0,16(s8)
800037f8:	8fc20030 	lw	v0,48(s8)
800037fc:	8c420000 	lw	v0,0(v0)
80003800:	8fc40058 	lw	a0,88(s8)
80003804:	00402825 	move	a1,v0
80003808:	0c000d52 	jal	80003548 <list_add>
8000380c:	00000000 	nop
80003810:	10000009 	b	80003838 <buddy_list_add+0x1d0>
80003814:	00000000 	nop
80003818:	24020001 	li	v0,1
8000381c:	afc20010 	sw	v0,16(s8)
80003820:	8fc40058 	lw	a0,88(s8)
80003824:	8fc50030 	lw	a1,48(s8)
80003828:	0c000d52 	jal	80003548 <list_add>
8000382c:	00000000 	nop
80003830:	10000058 	b	80003994 <buddy_list_add+0x32c>
80003834:	00000000 	nop
80003838:	10000056 	b	80003994 <buddy_list_add+0x32c>
8000383c:	00000000 	nop
80003840:	8fc20060 	lw	v0,96(s8)
80003844:	18400053 	blez	v0,80003994 <buddy_list_add+0x32c>
80003848:	00000000 	nop
8000384c:	afc0001c 	sw	zero,28(s8)
80003850:	8fc2005c 	lw	v0,92(s8)
80003854:	8c420004 	lw	v0,4(v0)
80003858:	afc20020 	sw	v0,32(s8)
8000385c:	8fc2005c 	lw	v0,92(s8)
80003860:	8c420000 	lw	v0,0(v0)
80003864:	afc20040 	sw	v0,64(s8)
80003868:	8fc2005c 	lw	v0,92(s8)
8000386c:	8c420004 	lw	v0,4(v0)
80003870:	2442fff8 	addiu	v0,v0,-8
80003874:	afc20024 	sw	v0,36(s8)
80003878:	8fc2005c 	lw	v0,92(s8)
8000387c:	8c420000 	lw	v0,0(v0)
80003880:	2442fff8 	addiu	v0,v0,-8
80003884:	afc20044 	sw	v0,68(s8)
80003888:	1000001e 	b	80003904 <buddy_list_add+0x29c>
8000388c:	00000000 	nop
80003890:	8fc20024 	lw	v0,36(s8)
80003894:	8f838094 	lw	v1,-32620(gp)
80003898:	00431023 	subu	v0,v0,v1
8000389c:	00021883 	sra	v1,v0,0x2
800038a0:	3c02b6db 	lui	v0,0xb6db
800038a4:	34426db7 	ori	v0,v0,0x6db7
800038a8:	70621002 	mul	v0,v1,v0
800038ac:	afc20048 	sw	v0,72(s8)
800038b0:	8fc30048 	lw	v1,72(s8)
800038b4:	8fc2002c 	lw	v0,44(s8)
800038b8:	0043102b 	sltu	v0,v0,v1
800038bc:	1440000b 	bnez	v0,800038ec <buddy_list_add+0x284>
800038c0:	00000000 	nop
800038c4:	24020001 	li	v0,1
800038c8:	afc2001c 	sw	v0,28(s8)
800038cc:	8fc20020 	lw	v0,32(s8)
800038d0:	8c420000 	lw	v0,0(v0)
800038d4:	8fc40058 	lw	a0,88(s8)
800038d8:	00402825 	move	a1,v0
800038dc:	0c000d52 	jal	80003548 <list_add>
800038e0:	00000000 	nop
800038e4:	1000000b 	b	80003914 <buddy_list_add+0x2ac>
800038e8:	00000000 	nop
800038ec:	8fc20020 	lw	v0,32(s8)
800038f0:	8c420004 	lw	v0,4(v0)
800038f4:	afc20020 	sw	v0,32(s8)
800038f8:	8fc20020 	lw	v0,32(s8)
800038fc:	2442fff8 	addiu	v0,v0,-8
80003900:	afc20024 	sw	v0,36(s8)
80003904:	8fc30024 	lw	v1,36(s8)
80003908:	8fc20044 	lw	v0,68(s8)
8000390c:	1462ffe0 	bne	v1,v0,80003890 <buddy_list_add+0x228>
80003910:	00000000 	nop
80003914:	8fc2001c 	lw	v0,28(s8)
80003918:	1440001e 	bnez	v0,80003994 <buddy_list_add+0x32c>
8000391c:	00000000 	nop
80003920:	8fc20044 	lw	v0,68(s8)
80003924:	8f838094 	lw	v1,-32620(gp)
80003928:	00431023 	subu	v0,v0,v1
8000392c:	00021883 	sra	v1,v0,0x2
80003930:	3c02b6db 	lui	v0,0xb6db
80003934:	34426db7 	ori	v0,v0,0x6db7
80003938:	70621002 	mul	v0,v1,v0
8000393c:	afc2004c 	sw	v0,76(s8)
80003940:	8fc3004c 	lw	v1,76(s8)
80003944:	8fc2002c 	lw	v0,44(s8)
80003948:	0043102b 	sltu	v0,v0,v1
8000394c:	1440000b 	bnez	v0,8000397c <buddy_list_add+0x314>
80003950:	00000000 	nop
80003954:	24020001 	li	v0,1
80003958:	afc2001c 	sw	v0,28(s8)
8000395c:	8fc20040 	lw	v0,64(s8)
80003960:	8c420000 	lw	v0,0(v0)
80003964:	8fc40058 	lw	a0,88(s8)
80003968:	00402825 	move	a1,v0
8000396c:	0c000d52 	jal	80003548 <list_add>
80003970:	00000000 	nop
80003974:	10000007 	b	80003994 <buddy_list_add+0x32c>
80003978:	00000000 	nop
8000397c:	24020001 	li	v0,1
80003980:	afc2001c 	sw	v0,28(s8)
80003984:	8fc40058 	lw	a0,88(s8)
80003988:	8fc50040 	lw	a1,64(s8)
8000398c:	0c000d52 	jal	80003548 <list_add>
80003990:	00000000 	nop
80003994:	03c0e825 	move	sp,s8
80003998:	8fbf0054 	lw	ra,84(sp)
8000399c:	8fbe0050 	lw	s8,80(sp)
800039a0:	27bd0058 	addiu	sp,sp,88
800039a4:	03e00008 	jr	ra
800039a8:	00000000 	nop

800039ac <buddy_info>:
800039ac:	27bdffe0 	addiu	sp,sp,-32
800039b0:	afbf001c 	sw	ra,28(sp)
800039b4:	afbe0018 	sw	s8,24(sp)
800039b8:	03a0f025 	move	s8,sp
800039bc:	3c028000 	lui	v0,0x8000
800039c0:	244477c4 	addiu	a0,v0,30660
800039c4:	0c00152c 	jal	800054b0 <kernel_printf>
800039c8:	00000000 	nop
800039cc:	3c028001 	lui	v0,0x8001
800039d0:	8c430214 	lw	v1,532(v0)
800039d4:	3c028000 	lui	v0,0x8000
800039d8:	244477d4 	addiu	a0,v0,30676
800039dc:	00602825 	move	a1,v1
800039e0:	0c00152c 	jal	800054b0 <kernel_printf>
800039e4:	00000000 	nop
800039e8:	3c028001 	lui	v0,0x8001
800039ec:	24420214 	addiu	v0,v0,532
800039f0:	8c430004 	lw	v1,4(v0)
800039f4:	3c028000 	lui	v0,0x8000
800039f8:	244477f4 	addiu	a0,v0,30708
800039fc:	00602825 	move	a1,v1
80003a00:	0c00152c 	jal	800054b0 <kernel_printf>
80003a04:	00000000 	nop
80003a08:	afc00010 	sw	zero,16(s8)
80003a0c:	10000014 	b	80003a60 <buddy_info+0xb4>
80003a10:	00000000 	nop
80003a14:	3c048001 	lui	a0,0x8001
80003a18:	8fc20010 	lw	v0,16(s8)
80003a1c:	00401825 	move	v1,v0
80003a20:	00031080 	sll	v0,v1,0x2
80003a24:	00401825 	move	v1,v0
80003a28:	00031080 	sll	v0,v1,0x2
80003a2c:	00431023 	subu	v0,v0,v1
80003a30:	24830214 	addiu	v1,a0,532
80003a34:	00431021 	addu	v0,v0,v1
80003a38:	8c430018 	lw	v1,24(v0)
80003a3c:	3c028000 	lui	v0,0x8000
80003a40:	24447814 	addiu	a0,v0,30740
80003a44:	8fc50010 	lw	a1,16(s8)
80003a48:	00603025 	move	a2,v1
80003a4c:	0c00152c 	jal	800054b0 <kernel_printf>
80003a50:	00000000 	nop
80003a54:	8fc20010 	lw	v0,16(s8)
80003a58:	24420001 	addiu	v0,v0,1
80003a5c:	afc20010 	sw	v0,16(s8)
80003a60:	8fc20010 	lw	v0,16(s8)
80003a64:	2c420005 	sltiu	v0,v0,5
80003a68:	1440ffea 	bnez	v0,80003a14 <buddy_info+0x68>
80003a6c:	00000000 	nop
80003a70:	03c0e825 	move	sp,s8
80003a74:	8fbf001c 	lw	ra,28(sp)
80003a78:	8fbe0018 	lw	s8,24(sp)
80003a7c:	27bd0020 	addiu	sp,sp,32
80003a80:	03e00008 	jr	ra
80003a84:	00000000 	nop

80003a88 <init_pages>:
80003a88:	27bdffe0 	addiu	sp,sp,-32
80003a8c:	afbf001c 	sw	ra,28(sp)
80003a90:	afbe0018 	sw	s8,24(sp)
80003a94:	03a0f025 	move	s8,sp
80003a98:	afc40020 	sw	a0,32(s8)
80003a9c:	afc50024 	sw	a1,36(s8)
80003aa0:	8fc20020 	lw	v0,32(s8)
80003aa4:	afc20010 	sw	v0,16(s8)
80003aa8:	1000003c 	b	80003b9c <init_pages+0x114>
80003aac:	00000000 	nop
80003ab0:	8f838094 	lw	v1,-32620(gp)
80003ab4:	8fc20010 	lw	v0,16(s8)
80003ab8:	00021080 	sll	v0,v0,0x2
80003abc:	000220c0 	sll	a0,v0,0x3
80003ac0:	00821023 	subu	v0,a0,v0
80003ac4:	00621021 	addu	v0,v1,v0
80003ac8:	ac400000 	sw	zero,0(v0)
80003acc:	8f838094 	lw	v1,-32620(gp)
80003ad0:	8fc20010 	lw	v0,16(s8)
80003ad4:	00021080 	sll	v0,v0,0x2
80003ad8:	000220c0 	sll	a0,v0,0x3
80003adc:	00821023 	subu	v0,a0,v0
80003ae0:	00621021 	addu	v0,v1,v0
80003ae4:	3c034000 	lui	v1,0x4000
80003ae8:	ac430000 	sw	v1,0(v0)
80003aec:	8f838094 	lw	v1,-32620(gp)
80003af0:	8fc20010 	lw	v0,16(s8)
80003af4:	00021080 	sll	v0,v0,0x2
80003af8:	000220c0 	sll	a0,v0,0x3
80003afc:	00821023 	subu	v0,a0,v0
80003b00:	00621021 	addu	v0,v1,v0
80003b04:	24030001 	li	v1,1
80003b08:	ac430004 	sw	v1,4(v0)
80003b0c:	8f838094 	lw	v1,-32620(gp)
80003b10:	8fc20010 	lw	v0,16(s8)
80003b14:	00021080 	sll	v0,v0,0x2
80003b18:	000220c0 	sll	a0,v0,0x3
80003b1c:	00821023 	subu	v0,a0,v0
80003b20:	00621021 	addu	v0,v1,v0
80003b24:	2403ffff 	li	v1,-1
80003b28:	ac430010 	sw	v1,16(v0)
80003b2c:	8f838094 	lw	v1,-32620(gp)
80003b30:	8fc20010 	lw	v0,16(s8)
80003b34:	00021080 	sll	v0,v0,0x2
80003b38:	000220c0 	sll	a0,v0,0x3
80003b3c:	00821023 	subu	v0,a0,v0
80003b40:	00621021 	addu	v0,v1,v0
80003b44:	2403ffff 	li	v1,-1
80003b48:	ac430014 	sw	v1,20(v0)
80003b4c:	8f838094 	lw	v1,-32620(gp)
80003b50:	8fc20010 	lw	v0,16(s8)
80003b54:	00021080 	sll	v0,v0,0x2
80003b58:	000220c0 	sll	a0,v0,0x3
80003b5c:	00821023 	subu	v0,a0,v0
80003b60:	00621021 	addu	v0,v1,v0
80003b64:	ac400018 	sw	zero,24(v0)
80003b68:	8f838094 	lw	v1,-32620(gp)
80003b6c:	8fc20010 	lw	v0,16(s8)
80003b70:	00021080 	sll	v0,v0,0x2
80003b74:	000220c0 	sll	a0,v0,0x3
80003b78:	00821023 	subu	v0,a0,v0
80003b7c:	00621021 	addu	v0,v1,v0
80003b80:	24420008 	addiu	v0,v0,8
80003b84:	00402025 	move	a0,v0
80003b88:	0c000d2c 	jal	800034b0 <INIT_LIST_HEAD>
80003b8c:	00000000 	nop
80003b90:	8fc20010 	lw	v0,16(s8)
80003b94:	24420001 	addiu	v0,v0,1
80003b98:	afc20010 	sw	v0,16(s8)
80003b9c:	8fc30010 	lw	v1,16(s8)
80003ba0:	8fc20024 	lw	v0,36(s8)
80003ba4:	0062102b 	sltu	v0,v1,v0
80003ba8:	1440ffc1 	bnez	v0,80003ab0 <init_pages+0x28>
80003bac:	00000000 	nop
80003bb0:	03c0e825 	move	sp,s8
80003bb4:	8fbf001c 	lw	ra,28(sp)
80003bb8:	8fbe0018 	lw	s8,24(sp)
80003bbc:	27bd0020 	addiu	sp,sp,32
80003bc0:	03e00008 	jr	ra
80003bc4:	00000000 	nop

80003bc8 <init_buddy>:
80003bc8:	27bdffd8 	addiu	sp,sp,-40
80003bcc:	afbf0024 	sw	ra,36(sp)
80003bd0:	afbe0020 	sw	s8,32(sp)
80003bd4:	03a0f025 	move	s8,sp
80003bd8:	2402001c 	li	v0,28
80003bdc:	afc20014 	sw	v0,20(s8)
80003be0:	3c028001 	lui	v0,0x8001
80003be4:	2442ff14 	addiu	v0,v0,-236
80003be8:	8c430004 	lw	v1,4(v0)
80003bec:	8fc20014 	lw	v0,20(s8)
80003bf0:	70621002 	mul	v0,v1,v0
80003bf4:	00402025 	move	a0,v0
80003bf8:	00002825 	move	a1,zero
80003bfc:	24061000 	li	a2,4096
80003c00:	0c0007e1 	jal	80001f84 <bootmm_alloc_pages>
80003c04:	00000000 	nop
80003c08:	afc20018 	sw	v0,24(s8)
80003c0c:	8fc20018 	lw	v0,24(s8)
80003c10:	14400007 	bnez	v0,80003c30 <init_buddy+0x68>
80003c14:	00000000 	nop
80003c18:	3c028000 	lui	v0,0x8000
80003c1c:	24447828 	addiu	a0,v0,30760
80003c20:	0c00152c 	jal	800054b0 <kernel_printf>
80003c24:	00000000 	nop
80003c28:	1000ffff 	b	80003c28 <init_buddy+0x60>
80003c2c:	00000000 	nop
80003c30:	8fc30018 	lw	v1,24(s8)
80003c34:	3c028000 	lui	v0,0x8000
80003c38:	00621025 	or	v0,v1,v0
80003c3c:	af828094 	sw	v0,-32620(gp)
80003c40:	3c028001 	lui	v0,0x8001
80003c44:	2442ff14 	addiu	v0,v0,-236
80003c48:	8c420004 	lw	v0,4(v0)
80003c4c:	00002025 	move	a0,zero
80003c50:	00402825 	move	a1,v0
80003c54:	0c000ea2 	jal	80003a88 <init_pages>
80003c58:	00000000 	nop
80003c5c:	af80808c 	sw	zero,-32628(gp)
80003c60:	af808090 	sw	zero,-32624(gp)
80003c64:	afc00010 	sw	zero,16(s8)
80003c68:	1000001d 	b	80003ce0 <init_buddy+0x118>
80003c6c:	00000000 	nop
80003c70:	3c048001 	lui	a0,0x8001
80003c74:	8fc20010 	lw	v0,16(s8)
80003c78:	00401825 	move	v1,v0
80003c7c:	00031080 	sll	v0,v1,0x2
80003c80:	00401825 	move	v1,v0
80003c84:	00031080 	sll	v0,v1,0x2
80003c88:	00431023 	subu	v0,v0,v1
80003c8c:	2483ff14 	addiu	v1,a0,-236
80003c90:	00431021 	addu	v0,v0,v1
80003c94:	8c43001c 	lw	v1,28(v0)
80003c98:	8f828090 	lw	v0,-32624(gp)
80003c9c:	0043102b 	sltu	v0,v0,v1
80003ca0:	1040000c 	beqz	v0,80003cd4 <init_buddy+0x10c>
80003ca4:	00000000 	nop
80003ca8:	3c048001 	lui	a0,0x8001
80003cac:	8fc20010 	lw	v0,16(s8)
80003cb0:	00401825 	move	v1,v0
80003cb4:	00031080 	sll	v0,v1,0x2
80003cb8:	00401825 	move	v1,v0
80003cbc:	00031080 	sll	v0,v1,0x2
80003cc0:	00431023 	subu	v0,v0,v1
80003cc4:	2483ff14 	addiu	v1,a0,-236
80003cc8:	00431021 	addu	v0,v0,v1
80003ccc:	8c42001c 	lw	v0,28(v0)
80003cd0:	af828090 	sw	v0,-32624(gp)
80003cd4:	8fc20010 	lw	v0,16(s8)
80003cd8:	24420001 	addiu	v0,v0,1
80003cdc:	afc20010 	sw	v0,16(s8)
80003ce0:	3c028001 	lui	v0,0x8001
80003ce4:	2442ff14 	addiu	v0,v0,-236
80003ce8:	8c430014 	lw	v1,20(v0)
80003cec:	8fc20010 	lw	v0,16(s8)
80003cf0:	0043102b 	sltu	v0,v0,v1
80003cf4:	1440ffde 	bnez	v0,80003c70 <init_buddy+0xa8>
80003cf8:	00000000 	nop
80003cfc:	8f828090 	lw	v0,-32624(gp)
80003d00:	00021302 	srl	v0,v0,0xc
80003d04:	af828090 	sw	v0,-32624(gp)
80003d08:	8f828090 	lw	v0,-32624(gp)
80003d0c:	2443000f 	addiu	v1,v0,15
80003d10:	2402fff0 	li	v0,-16
80003d14:	00621824 	and	v1,v1,v0
80003d18:	3c028001 	lui	v0,0x8001
80003d1c:	ac430214 	sw	v1,532(v0)
80003d20:	3c028001 	lui	v0,0x8001
80003d24:	2442ff14 	addiu	v0,v0,-236
80003d28:	8c430004 	lw	v1,4(v0)
80003d2c:	2402fff0 	li	v0,-16
80003d30:	00621824 	and	v1,v1,v0
80003d34:	3c028001 	lui	v0,0x8001
80003d38:	24420214 	addiu	v0,v0,532
80003d3c:	ac430004 	sw	v1,4(v0)
80003d40:	afc00010 	sw	zero,16(s8)
80003d44:	1000001c 	b	80003db8 <init_buddy+0x1f0>
80003d48:	00000000 	nop
80003d4c:	3c048001 	lui	a0,0x8001
80003d50:	8fc20010 	lw	v0,16(s8)
80003d54:	00401825 	move	v1,v0
80003d58:	00031080 	sll	v0,v1,0x2
80003d5c:	00401825 	move	v1,v0
80003d60:	00031080 	sll	v0,v1,0x2
80003d64:	00431023 	subu	v0,v0,v1
80003d68:	24830214 	addiu	v1,a0,532
80003d6c:	00431021 	addu	v0,v0,v1
80003d70:	ac400018 	sw	zero,24(v0)
80003d74:	8fc20010 	lw	v0,16(s8)
80003d78:	00401825 	move	v1,v0
80003d7c:	00031080 	sll	v0,v1,0x2
80003d80:	00401825 	move	v1,v0
80003d84:	00031080 	sll	v0,v1,0x2
80003d88:	00431023 	subu	v0,v0,v1
80003d8c:	24430018 	addiu	v1,v0,24
80003d90:	3c028001 	lui	v0,0x8001
80003d94:	24420214 	addiu	v0,v0,532
80003d98:	00621021 	addu	v0,v1,v0
80003d9c:	24420004 	addiu	v0,v0,4
80003da0:	00402025 	move	a0,v0
80003da4:	0c000d2c 	jal	800034b0 <INIT_LIST_HEAD>
80003da8:	00000000 	nop
80003dac:	8fc20010 	lw	v0,16(s8)
80003db0:	24420001 	addiu	v0,v0,1
80003db4:	afc20010 	sw	v0,16(s8)
80003db8:	8fc20010 	lw	v0,16(s8)
80003dbc:	2c420005 	sltiu	v0,v0,5
80003dc0:	1440ffe2 	bnez	v0,80003d4c <init_buddy+0x184>
80003dc4:	00000000 	nop
80003dc8:	8f838094 	lw	v1,-32620(gp)
80003dcc:	3c028001 	lui	v0,0x8001
80003dd0:	8c420214 	lw	v0,532(v0)
80003dd4:	00021080 	sll	v0,v0,0x2
80003dd8:	000220c0 	sll	a0,v0,0x3
80003ddc:	00821023 	subu	v0,a0,v0
80003de0:	00621821 	addu	v1,v1,v0
80003de4:	3c028001 	lui	v0,0x8001
80003de8:	24420214 	addiu	v0,v0,532
80003dec:	ac430008 	sw	v1,8(v0)
80003df0:	3c028001 	lui	v0,0x8001
80003df4:	24440220 	addiu	a0,v0,544
80003df8:	0c00111f 	jal	8000447c <init_lock>
80003dfc:	00000000 	nop
80003e00:	3c028001 	lui	v0,0x8001
80003e04:	8c420214 	lw	v0,532(v0)
80003e08:	afc20010 	sw	v0,16(s8)
80003e0c:	1000000e 	b	80003e48 <init_buddy+0x280>
80003e10:	00000000 	nop
80003e14:	8f838094 	lw	v1,-32620(gp)
80003e18:	8fc20010 	lw	v0,16(s8)
80003e1c:	00021080 	sll	v0,v0,0x2
80003e20:	000220c0 	sll	a0,v0,0x3
80003e24:	00821023 	subu	v0,a0,v0
80003e28:	00621021 	addu	v0,v1,v0
80003e2c:	00402025 	move	a0,v0
80003e30:	00002825 	move	a1,zero
80003e34:	0c000f9f 	jal	80003e7c <__free_pages>
80003e38:	00000000 	nop
80003e3c:	8fc20010 	lw	v0,16(s8)
80003e40:	24420001 	addiu	v0,v0,1
80003e44:	afc20010 	sw	v0,16(s8)
80003e48:	3c028001 	lui	v0,0x8001
80003e4c:	24420214 	addiu	v0,v0,532
80003e50:	8c430004 	lw	v1,4(v0)
80003e54:	8fc20010 	lw	v0,16(s8)
80003e58:	0043102b 	sltu	v0,v0,v1
80003e5c:	1440ffed 	bnez	v0,80003e14 <init_buddy+0x24c>
80003e60:	00000000 	nop
80003e64:	03c0e825 	move	sp,s8
80003e68:	8fbf0024 	lw	ra,36(sp)
80003e6c:	8fbe0020 	lw	s8,32(sp)
80003e70:	27bd0028 	addiu	sp,sp,40
80003e74:	03e00008 	jr	ra
80003e78:	00000000 	nop

80003e7c <__free_pages>:
80003e7c:	27bdffd0 	addiu	sp,sp,-48
80003e80:	afbf002c 	sw	ra,44(sp)
80003e84:	afbe0028 	sw	s8,40(sp)
80003e88:	03a0f025 	move	s8,sp
80003e8c:	afc40030 	sw	a0,48(s8)
80003e90:	afc50034 	sw	a1,52(s8)
80003e94:	afc00014 	sw	zero,20(s8)
80003e98:	8fc20030 	lw	v0,48(s8)
80003e9c:	8c430000 	lw	v1,0(v0)
80003ea0:	3c024000 	lui	v0,0x4000
80003ea4:	00621024 	and	v0,v1,v0
80003ea8:	1440000d 	bnez	v0,80003ee0 <__free_pages+0x64>
80003eac:	00000000 	nop
80003eb0:	8fc20030 	lw	v0,48(s8)
80003eb4:	8c430000 	lw	v1,0(v0)
80003eb8:	3c022000 	lui	v0,0x2000
80003ebc:	00621024 	and	v0,v1,v0
80003ec0:	14400007 	bnez	v0,80003ee0 <__free_pages+0x64>
80003ec4:	00000000 	nop
80003ec8:	3c028000 	lui	v0,0x8000
80003ecc:	24447868 	addiu	a0,v0,30824
80003ed0:	0c00152c 	jal	800054b0 <kernel_printf>
80003ed4:	00000000 	nop
80003ed8:	10000097 	b	80004138 <__free_pages+0x2bc>
80003edc:	00000000 	nop
80003ee0:	3c028001 	lui	v0,0x8001
80003ee4:	24440220 	addiu	a0,v0,544
80003ee8:	0c001131 	jal	800044c4 <lockup>
80003eec:	00000000 	nop
80003ef0:	8fc20030 	lw	v0,48(s8)
80003ef4:	3c038000 	lui	v1,0x8000
80003ef8:	ac430000 	sw	v1,0(v0)
80003efc:	8fc20030 	lw	v0,48(s8)
80003f00:	3c038001 	lui	v1,0x8001
80003f04:	24630214 	addiu	v1,v1,532
80003f08:	8c630008 	lw	v1,8(v1)
80003f0c:	00431023 	subu	v0,v0,v1
80003f10:	00021883 	sra	v1,v0,0x2
80003f14:	3c02b6db 	lui	v0,0xb6db
80003f18:	34426db7 	ori	v0,v0,0x6db7
80003f1c:	70621002 	mul	v0,v1,v0
80003f20:	afc20010 	sw	v0,16(s8)
80003f24:	10000052 	b	80004070 <__free_pages+0x1f4>
80003f28:	00000000 	nop
80003f2c:	8fc20034 	lw	v0,52(s8)
80003f30:	24030001 	li	v1,1
80003f34:	00431004 	sllv	v0,v1,v0
80003f38:	00401825 	move	v1,v0
80003f3c:	8fc20010 	lw	v0,16(s8)
80003f40:	00621026 	xor	v0,v1,v0
80003f44:	afc20018 	sw	v0,24(s8)
80003f48:	8fc30018 	lw	v1,24(s8)
80003f4c:	8fc20010 	lw	v0,16(s8)
80003f50:	00621023 	subu	v0,v1,v0
80003f54:	00021080 	sll	v0,v0,0x2
80003f58:	000218c0 	sll	v1,v0,0x3
80003f5c:	00621023 	subu	v0,v1,v0
80003f60:	8fc30030 	lw	v1,48(s8)
80003f64:	00621021 	addu	v0,v1,v0
80003f68:	afc2001c 	sw	v0,28(s8)
80003f6c:	8fc2001c 	lw	v0,28(s8)
80003f70:	8c430014 	lw	v1,20(v0)
80003f74:	8fc20034 	lw	v0,52(s8)
80003f78:	10620003 	beq	v1,v0,80003f88 <__free_pages+0x10c>
80003f7c:	00000000 	nop
80003f80:	1000003f 	b	80004080 <__free_pages+0x204>
80003f84:	00000000 	nop
80003f88:	8fc2001c 	lw	v0,28(s8)
80003f8c:	8c430000 	lw	v1,0(v0)
80003f90:	3c024000 	lui	v0,0x4000
80003f94:	14620007 	bne	v1,v0,80003fb4 <__free_pages+0x138>
80003f98:	00000000 	nop
80003f9c:	3c028000 	lui	v0,0x8000
80003fa0:	24447878 	addiu	a0,v0,30840
80003fa4:	0c00152c 	jal	800054b0 <kernel_printf>
80003fa8:	00000000 	nop
80003fac:	10000034 	b	80004080 <__free_pages+0x204>
80003fb0:	00000000 	nop
80003fb4:	8fc2001c 	lw	v0,28(s8)
80003fb8:	24420008 	addiu	v0,v0,8
80003fbc:	00402025 	move	a0,v0
80003fc0:	0c000d75 	jal	800035d4 <list_del_init>
80003fc4:	00000000 	nop
80003fc8:	3c048001 	lui	a0,0x8001
80003fcc:	8fc20034 	lw	v0,52(s8)
80003fd0:	00401825 	move	v1,v0
80003fd4:	00031080 	sll	v0,v1,0x2
80003fd8:	00401825 	move	v1,v0
80003fdc:	00031080 	sll	v0,v1,0x2
80003fe0:	00431023 	subu	v0,v0,v1
80003fe4:	24830214 	addiu	v1,a0,532
80003fe8:	00431021 	addu	v0,v0,v1
80003fec:	8c420018 	lw	v0,24(v0)
80003ff0:	2444ffff 	addiu	a0,v0,-1
80003ff4:	3c058001 	lui	a1,0x8001
80003ff8:	8fc20034 	lw	v0,52(s8)
80003ffc:	00401825 	move	v1,v0
80004000:	00031080 	sll	v0,v1,0x2
80004004:	00401825 	move	v1,v0
80004008:	00031080 	sll	v0,v1,0x2
8000400c:	00431023 	subu	v0,v0,v1
80004010:	24a30214 	addiu	v1,a1,532
80004014:	00431021 	addu	v0,v0,v1
80004018:	ac440018 	sw	a0,24(v0)
8000401c:	8fc2001c 	lw	v0,28(s8)
80004020:	2403ffff 	li	v1,-1
80004024:	ac430014 	sw	v1,20(v0)
80004028:	8fc30018 	lw	v1,24(s8)
8000402c:	8fc20010 	lw	v0,16(s8)
80004030:	00621024 	and	v0,v1,v0
80004034:	afc20020 	sw	v0,32(s8)
80004038:	8fc30020 	lw	v1,32(s8)
8000403c:	8fc20010 	lw	v0,16(s8)
80004040:	00621023 	subu	v0,v1,v0
80004044:	00021080 	sll	v0,v0,0x2
80004048:	000218c0 	sll	v1,v0,0x3
8000404c:	00621023 	subu	v0,v1,v0
80004050:	8fc30030 	lw	v1,48(s8)
80004054:	00621021 	addu	v0,v1,v0
80004058:	afc20030 	sw	v0,48(s8)
8000405c:	8fc20020 	lw	v0,32(s8)
80004060:	afc20010 	sw	v0,16(s8)
80004064:	8fc20034 	lw	v0,52(s8)
80004068:	24420001 	addiu	v0,v0,1
8000406c:	afc20034 	sw	v0,52(s8)
80004070:	8fc20034 	lw	v0,52(s8)
80004074:	2c420004 	sltiu	v0,v0,4
80004078:	1440ffac 	bnez	v0,80003f2c <__free_pages+0xb0>
8000407c:	00000000 	nop
80004080:	8fc20030 	lw	v0,48(s8)
80004084:	8fc30034 	lw	v1,52(s8)
80004088:	ac430014 	sw	v1,20(v0)
8000408c:	8fc20030 	lw	v0,48(s8)
80004090:	24440008 	addiu	a0,v0,8
80004094:	8fc20034 	lw	v0,52(s8)
80004098:	00401825 	move	v1,v0
8000409c:	00031080 	sll	v0,v1,0x2
800040a0:	00401825 	move	v1,v0
800040a4:	00031080 	sll	v0,v1,0x2
800040a8:	00431023 	subu	v0,v0,v1
800040ac:	24430018 	addiu	v1,v0,24
800040b0:	3c028001 	lui	v0,0x8001
800040b4:	24420214 	addiu	v0,v0,532
800040b8:	00621021 	addu	v0,v1,v0
800040bc:	24430004 	addiu	v1,v0,4
800040c0:	8fc20034 	lw	v0,52(s8)
800040c4:	00602825 	move	a1,v1
800040c8:	00403025 	move	a2,v0
800040cc:	0c000d9a 	jal	80003668 <buddy_list_add>
800040d0:	00000000 	nop
800040d4:	3c048001 	lui	a0,0x8001
800040d8:	8fc20034 	lw	v0,52(s8)
800040dc:	00401825 	move	v1,v0
800040e0:	00031080 	sll	v0,v1,0x2
800040e4:	00401825 	move	v1,v0
800040e8:	00031080 	sll	v0,v1,0x2
800040ec:	00431023 	subu	v0,v0,v1
800040f0:	24830214 	addiu	v1,a0,532
800040f4:	00431021 	addu	v0,v0,v1
800040f8:	8c420018 	lw	v0,24(v0)
800040fc:	24440001 	addiu	a0,v0,1
80004100:	3c058001 	lui	a1,0x8001
80004104:	8fc20034 	lw	v0,52(s8)
80004108:	00401825 	move	v1,v0
8000410c:	00031080 	sll	v0,v1,0x2
80004110:	00401825 	move	v1,v0
80004114:	00031080 	sll	v0,v1,0x2
80004118:	00431023 	subu	v0,v0,v1
8000411c:	24a30214 	addiu	v1,a1,532
80004120:	00431021 	addu	v0,v0,v1
80004124:	ac440018 	sw	a0,24(v0)
80004128:	3c028001 	lui	v0,0x8001
8000412c:	24440220 	addiu	a0,v0,544
80004130:	0c001148 	jal	80004520 <unlock>
80004134:	00000000 	nop
80004138:	03c0e825 	move	sp,s8
8000413c:	8fbf002c 	lw	ra,44(sp)
80004140:	8fbe0028 	lw	s8,40(sp)
80004144:	27bd0030 	addiu	sp,sp,48
80004148:	03e00008 	jr	ra
8000414c:	00000000 	nop

80004150 <__alloc_pages>:
80004150:	27bdffd0 	addiu	sp,sp,-48
80004154:	afbf002c 	sw	ra,44(sp)
80004158:	afbe0028 	sw	s8,40(sp)
8000415c:	03a0f025 	move	s8,sp
80004160:	afc40030 	sw	a0,48(s8)
80004164:	3c028001 	lui	v0,0x8001
80004168:	24440220 	addiu	a0,v0,544
8000416c:	0c001131 	jal	800044c4 <lockup>
80004170:	00000000 	nop
80004174:	8fc20030 	lw	v0,48(s8)
80004178:	afc20010 	sw	v0,16(s8)
8000417c:	1000001d 	b	800041f4 <__alloc_pages+0xa4>
80004180:	00000000 	nop
80004184:	8fc20010 	lw	v0,16(s8)
80004188:	00401825 	move	v1,v0
8000418c:	00031080 	sll	v0,v1,0x2
80004190:	00401825 	move	v1,v0
80004194:	00031080 	sll	v0,v1,0x2
80004198:	00431023 	subu	v0,v0,v1
8000419c:	24430018 	addiu	v1,v0,24
800041a0:	3c028001 	lui	v0,0x8001
800041a4:	24420214 	addiu	v0,v0,532
800041a8:	00621021 	addu	v0,v1,v0
800041ac:	afc2001c 	sw	v0,28(s8)
800041b0:	8fc2001c 	lw	v0,28(s8)
800041b4:	24420004 	addiu	v0,v0,4
800041b8:	00402025 	move	a0,v0
800041bc:	0c000d8b 	jal	8000362c <list_empty>
800041c0:	00000000 	nop
800041c4:	14400008 	bnez	v0,800041e8 <__alloc_pages+0x98>
800041c8:	00000000 	nop
800041cc:	00000000 	nop
800041d0:	8fc30010 	lw	v1,16(s8)
800041d4:	8fc20030 	lw	v0,48(s8)
800041d8:	10620017 	beq	v1,v0,80004238 <__alloc_pages+0xe8>
800041dc:	00000000 	nop
800041e0:	1000000f 	b	80004220 <__alloc_pages+0xd0>
800041e4:	00000000 	nop
800041e8:	8fc20010 	lw	v0,16(s8)
800041ec:	24420001 	addiu	v0,v0,1
800041f0:	afc20010 	sw	v0,16(s8)
800041f4:	8fc20010 	lw	v0,16(s8)
800041f8:	2c420005 	sltiu	v0,v0,5
800041fc:	1440ffe1 	bnez	v0,80004184 <__alloc_pages+0x34>
80004200:	00000000 	nop
80004204:	3c028001 	lui	v0,0x8001
80004208:	24440220 	addiu	a0,v0,544
8000420c:	0c001148 	jal	80004520 <unlock>
80004210:	00000000 	nop
80004214:	00001025 	move	v0,zero
80004218:	1000004f 	b	80004358 <__alloc_pages+0x208>
8000421c:	00000000 	nop
80004220:	8fc2001c 	lw	v0,28(s8)
80004224:	8c420004 	lw	v0,4(v0)
80004228:	2442fff8 	addiu	v0,v0,-8
8000422c:	afc20018 	sw	v0,24(s8)
80004230:	10000005 	b	80004248 <__alloc_pages+0xf8>
80004234:	00000000 	nop
80004238:	8fc2001c 	lw	v0,28(s8)
8000423c:	8c420008 	lw	v0,8(v0)
80004240:	2442fff8 	addiu	v0,v0,-8
80004244:	afc20018 	sw	v0,24(s8)
80004248:	8fc20018 	lw	v0,24(s8)
8000424c:	24420008 	addiu	v0,v0,8
80004250:	00402025 	move	a0,v0
80004254:	0c000d75 	jal	800035d4 <list_del_init>
80004258:	00000000 	nop
8000425c:	8fc20018 	lw	v0,24(s8)
80004260:	8fc30030 	lw	v1,48(s8)
80004264:	ac430014 	sw	v1,20(v0)
80004268:	8fc20018 	lw	v0,24(s8)
8000426c:	3c034000 	lui	v1,0x4000
80004270:	ac430000 	sw	v1,0(v0)
80004274:	8fc2001c 	lw	v0,28(s8)
80004278:	8c420000 	lw	v0,0(v0)
8000427c:	2443ffff 	addiu	v1,v0,-1
80004280:	8fc2001c 	lw	v0,28(s8)
80004284:	ac430000 	sw	v1,0(v0)
80004288:	8fc20010 	lw	v0,16(s8)
8000428c:	24030001 	li	v1,1
80004290:	00431004 	sllv	v0,v1,v0
80004294:	afc20014 	sw	v0,20(s8)
80004298:	10000025 	b	80004330 <__alloc_pages+0x1e0>
8000429c:	00000000 	nop
800042a0:	8fc2001c 	lw	v0,28(s8)
800042a4:	2442fff4 	addiu	v0,v0,-12
800042a8:	afc2001c 	sw	v0,28(s8)
800042ac:	8fc20010 	lw	v0,16(s8)
800042b0:	2442ffff 	addiu	v0,v0,-1
800042b4:	afc20010 	sw	v0,16(s8)
800042b8:	8fc20014 	lw	v0,20(s8)
800042bc:	00021042 	srl	v0,v0,0x1
800042c0:	afc20014 	sw	v0,20(s8)
800042c4:	8fc20014 	lw	v0,20(s8)
800042c8:	00021080 	sll	v0,v0,0x2
800042cc:	000218c0 	sll	v1,v0,0x3
800042d0:	00621023 	subu	v0,v1,v0
800042d4:	8fc30018 	lw	v1,24(s8)
800042d8:	00621021 	addu	v0,v1,v0
800042dc:	afc20020 	sw	v0,32(s8)
800042e0:	8fc20020 	lw	v0,32(s8)
800042e4:	24440008 	addiu	a0,v0,8
800042e8:	8fc2001c 	lw	v0,28(s8)
800042ec:	24430004 	addiu	v1,v0,4
800042f0:	8fc20010 	lw	v0,16(s8)
800042f4:	00602825 	move	a1,v1
800042f8:	00403025 	move	a2,v0
800042fc:	0c000d9a 	jal	80003668 <buddy_list_add>
80004300:	00000000 	nop
80004304:	8fc2001c 	lw	v0,28(s8)
80004308:	8c420000 	lw	v0,0(v0)
8000430c:	24430001 	addiu	v1,v0,1
80004310:	8fc2001c 	lw	v0,28(s8)
80004314:	ac430000 	sw	v1,0(v0)
80004318:	8fc20020 	lw	v0,32(s8)
8000431c:	8fc30010 	lw	v1,16(s8)
80004320:	ac430014 	sw	v1,20(v0)
80004324:	8fc20020 	lw	v0,32(s8)
80004328:	3c038000 	lui	v1,0x8000
8000432c:	ac430000 	sw	v1,0(v0)
80004330:	8fc30010 	lw	v1,16(s8)
80004334:	8fc20030 	lw	v0,48(s8)
80004338:	0043102b 	sltu	v0,v0,v1
8000433c:	1440ffd8 	bnez	v0,800042a0 <__alloc_pages+0x150>
80004340:	00000000 	nop
80004344:	3c028001 	lui	v0,0x8001
80004348:	24440220 	addiu	a0,v0,544
8000434c:	0c001148 	jal	80004520 <unlock>
80004350:	00000000 	nop
80004354:	8fc20018 	lw	v0,24(s8)
80004358:	03c0e825 	move	sp,s8
8000435c:	8fbf002c 	lw	ra,44(sp)
80004360:	8fbe0028 	lw	s8,40(sp)
80004364:	27bd0030 	addiu	sp,sp,48
80004368:	03e00008 	jr	ra
8000436c:	00000000 	nop

80004370 <alloc_pages>:
80004370:	27bdffe0 	addiu	sp,sp,-32
80004374:	afbf001c 	sw	ra,28(sp)
80004378:	afbe0018 	sw	s8,24(sp)
8000437c:	03a0f025 	move	s8,sp
80004380:	afc40020 	sw	a0,32(s8)
80004384:	8fc40020 	lw	a0,32(s8)
80004388:	0c001054 	jal	80004150 <__alloc_pages>
8000438c:	00000000 	nop
80004390:	afc20010 	sw	v0,16(s8)
80004394:	8fc20010 	lw	v0,16(s8)
80004398:	14400004 	bnez	v0,800043ac <alloc_pages+0x3c>
8000439c:	00000000 	nop
800043a0:	00001025 	move	v0,zero
800043a4:	10000009 	b	800043cc <alloc_pages+0x5c>
800043a8:	00000000 	nop
800043ac:	8fc20010 	lw	v0,16(s8)
800043b0:	8f838094 	lw	v1,-32620(gp)
800043b4:	00431023 	subu	v0,v0,v1
800043b8:	00021883 	sra	v1,v0,0x2
800043bc:	3c02b6db 	lui	v0,0xb6db
800043c0:	34426db7 	ori	v0,v0,0x6db7
800043c4:	70621002 	mul	v0,v1,v0
800043c8:	00021300 	sll	v0,v0,0xc
800043cc:	03c0e825 	move	sp,s8
800043d0:	8fbf001c 	lw	ra,28(sp)
800043d4:	8fbe0018 	lw	s8,24(sp)
800043d8:	27bd0020 	addiu	sp,sp,32
800043dc:	03e00008 	jr	ra
800043e0:	00000000 	nop

800043e4 <free_pages>:
800043e4:	27bdffe8 	addiu	sp,sp,-24
800043e8:	afbf0014 	sw	ra,20(sp)
800043ec:	afbe0010 	sw	s8,16(sp)
800043f0:	03a0f025 	move	s8,sp
800043f4:	afc40018 	sw	a0,24(s8)
800043f8:	afc5001c 	sw	a1,28(s8)
800043fc:	8f838094 	lw	v1,-32620(gp)
80004400:	8fc20018 	lw	v0,24(s8)
80004404:	00021302 	srl	v0,v0,0xc
80004408:	00021080 	sll	v0,v0,0x2
8000440c:	000220c0 	sll	a0,v0,0x3
80004410:	00821023 	subu	v0,a0,v0
80004414:	00621021 	addu	v0,v1,v0
80004418:	00402025 	move	a0,v0
8000441c:	8fc5001c 	lw	a1,28(s8)
80004420:	0c000f9f 	jal	80003e7c <__free_pages>
80004424:	00000000 	nop
80004428:	03c0e825 	move	sp,s8
8000442c:	8fbf0014 	lw	ra,20(sp)
80004430:	8fbe0010 	lw	s8,16(sp)
80004434:	27bd0018 	addiu	sp,sp,24
80004438:	03e00008 	jr	ra
8000443c:	00000000 	nop

80004440 <INIT_LIST_HEAD>:
80004440:	27bdfff8 	addiu	sp,sp,-8
80004444:	afbe0004 	sw	s8,4(sp)
80004448:	03a0f025 	move	s8,sp
8000444c:	afc40008 	sw	a0,8(s8)
80004450:	8fc20008 	lw	v0,8(s8)
80004454:	8fc30008 	lw	v1,8(s8)
80004458:	ac430000 	sw	v1,0(v0)
8000445c:	8fc20008 	lw	v0,8(s8)
80004460:	8fc30008 	lw	v1,8(s8)
80004464:	ac430004 	sw	v1,4(v0)
80004468:	03c0e825 	move	sp,s8
8000446c:	8fbe0004 	lw	s8,4(sp)
80004470:	27bd0008 	addiu	sp,sp,8
80004474:	03e00008 	jr	ra
80004478:	00000000 	nop

8000447c <init_lock>:
8000447c:	27bdffe8 	addiu	sp,sp,-24
80004480:	afbf0014 	sw	ra,20(sp)
80004484:	afbe0010 	sw	s8,16(sp)
80004488:	03a0f025 	move	s8,sp
8000448c:	afc40018 	sw	a0,24(s8)
80004490:	8fc20018 	lw	v0,24(s8)
80004494:	ac400000 	sw	zero,0(v0)
80004498:	8fc20018 	lw	v0,24(s8)
8000449c:	24420004 	addiu	v0,v0,4
800044a0:	00402025 	move	a0,v0
800044a4:	0c001110 	jal	80004440 <INIT_LIST_HEAD>
800044a8:	00000000 	nop
800044ac:	03c0e825 	move	sp,s8
800044b0:	8fbf0014 	lw	ra,20(sp)
800044b4:	8fbe0010 	lw	s8,16(sp)
800044b8:	27bd0018 	addiu	sp,sp,24
800044bc:	03e00008 	jr	ra
800044c0:	00000000 	nop

800044c4 <lockup>:
800044c4:	27bdffe0 	addiu	sp,sp,-32
800044c8:	afbf001c 	sw	ra,28(sp)
800044cc:	afbe0018 	sw	s8,24(sp)
800044d0:	03a0f025 	move	s8,sp
800044d4:	afc40020 	sw	a0,32(s8)
800044d8:	0c00046a 	jal	800011a8 <disable_interrupts>
800044dc:	00000000 	nop
800044e0:	afc20010 	sw	v0,16(s8)
800044e4:	8fc20020 	lw	v0,32(s8)
800044e8:	24030001 	li	v1,1
800044ec:	ac430000 	sw	v1,0(v0)
800044f0:	8fc20010 	lw	v0,16(s8)
800044f4:	10400003 	beqz	v0,80004504 <lockup+0x40>
800044f8:	00000000 	nop
800044fc:	0c00045b 	jal	8000116c <enable_interrupts>
80004500:	00000000 	nop
80004504:	24020001 	li	v0,1
80004508:	03c0e825 	move	sp,s8
8000450c:	8fbf001c 	lw	ra,28(sp)
80004510:	8fbe0018 	lw	s8,24(sp)
80004514:	27bd0020 	addiu	sp,sp,32
80004518:	03e00008 	jr	ra
8000451c:	00000000 	nop

80004520 <unlock>:
80004520:	27bdffe0 	addiu	sp,sp,-32
80004524:	afbf001c 	sw	ra,28(sp)
80004528:	afbe0018 	sw	s8,24(sp)
8000452c:	03a0f025 	move	s8,sp
80004530:	afc40020 	sw	a0,32(s8)
80004534:	0c00046a 	jal	800011a8 <disable_interrupts>
80004538:	00000000 	nop
8000453c:	afc20010 	sw	v0,16(s8)
80004540:	8fc20020 	lw	v0,32(s8)
80004544:	8c420000 	lw	v0,0(v0)
80004548:	10400003 	beqz	v0,80004558 <unlock+0x38>
8000454c:	00000000 	nop
80004550:	8fc20020 	lw	v0,32(s8)
80004554:	ac400000 	sw	zero,0(v0)
80004558:	8fc20010 	lw	v0,16(s8)
8000455c:	10400003 	beqz	v0,8000456c <unlock+0x4c>
80004560:	00000000 	nop
80004564:	0c00045b 	jal	8000116c <enable_interrupts>
80004568:	00000000 	nop
8000456c:	24020001 	li	v0,1
80004570:	03c0e825 	move	sp,s8
80004574:	8fbf001c 	lw	ra,28(sp)
80004578:	8fbe0018 	lw	s8,24(sp)
8000457c:	27bd0020 	addiu	sp,sp,32
80004580:	03e00008 	jr	ra
80004584:	00000000 	nop

80004588 <sd_send_cmd_blocking>:
80004588:	27bdfff0 	addiu	sp,sp,-16
8000458c:	afbe000c 	sw	s8,12(sp)
80004590:	03a0f025 	move	s8,sp
80004594:	afc40010 	sw	a0,16(s8)
80004598:	afc50014 	sw	a1,20(s8)
8000459c:	3c02bfc0 	lui	v0,0xbfc0
800045a0:	34429100 	ori	v0,v0,0x9100
800045a4:	24420004 	addiu	v0,v0,4
800045a8:	8fc30010 	lw	v1,16(s8)
800045ac:	ac430000 	sw	v1,0(v0)
800045b0:	3c02bfc0 	lui	v0,0xbfc0
800045b4:	34429100 	ori	v0,v0,0x9100
800045b8:	8fc30014 	lw	v1,20(s8)
800045bc:	ac430000 	sw	v1,0(v0)
800045c0:	24021000 	li	v0,4096
800045c4:	afc20000 	sw	v0,0(s8)
800045c8:	00000000 	nop
800045cc:	8fc20000 	lw	v0,0(s8)
800045d0:	2443ffff 	addiu	v1,v0,-1
800045d4:	afc30000 	sw	v1,0(s8)
800045d8:	1440fffc 	bnez	v0,800045cc <sd_send_cmd_blocking+0x44>
800045dc:	00000000 	nop
800045e0:	3c02bfc0 	lui	v0,0xbfc0
800045e4:	34429100 	ori	v0,v0,0x9100
800045e8:	24420034 	addiu	v0,v0,52
800045ec:	8c420000 	lw	v0,0(v0)
800045f0:	afc20000 	sw	v0,0(s8)
800045f4:	8fc20000 	lw	v0,0(s8)
800045f8:	1040fff9 	beqz	v0,800045e0 <sd_send_cmd_blocking+0x58>
800045fc:	00000000 	nop
80004600:	8fc20000 	lw	v0,0(s8)
80004604:	30420001 	andi	v0,v0,0x1
80004608:	10400004 	beqz	v0,8000461c <sd_send_cmd_blocking+0x94>
8000460c:	00000000 	nop
80004610:	00001025 	move	v0,zero
80004614:	10000002 	b	80004620 <sd_send_cmd_blocking+0x98>
80004618:	00000000 	nop
8000461c:	8fc20000 	lw	v0,0(s8)
80004620:	03c0e825 	move	sp,s8
80004624:	8fbe000c 	lw	s8,12(sp)
80004628:	27bd0010 	addiu	sp,sp,16
8000462c:	03e00008 	jr	ra
80004630:	00000000 	nop

80004634 <sd_read_sector_blocking>:
80004634:	27bdffd8 	addiu	sp,sp,-40
80004638:	afbf0024 	sw	ra,36(sp)
8000463c:	afbe0020 	sw	s8,32(sp)
80004640:	03a0f025 	move	s8,sp
80004644:	afc40028 	sw	a0,40(s8)
80004648:	afc5002c 	sw	a1,44(s8)
8000464c:	40086000 	mfc0	t0,c0_status
80004650:	01001025 	move	v0,t0
80004654:	2409fffe 	li	t1,-2
80004658:	01094024 	and	t0,t0,t1
8000465c:	40886000 	mtc0	t0,c0_status
80004660:	afc20018 	sw	v0,24(s8)
80004664:	8fc2002c 	lw	v0,44(s8)
80004668:	afc2001c 	sw	v0,28(s8)
8000466c:	3c02bfc0 	lui	v0,0xbfc0
80004670:	34429100 	ori	v0,v0,0x9100
80004674:	24420048 	addiu	v0,v0,72
80004678:	ac400000 	sw	zero,0(v0)
8000467c:	3c02bfc0 	lui	v0,0xbfc0
80004680:	34429100 	ori	v0,v0,0x9100
80004684:	2442003c 	addiu	v0,v0,60
80004688:	ac400000 	sw	zero,0(v0)
8000468c:	24041139 	li	a0,4409
80004690:	8fc50028 	lw	a1,40(s8)
80004694:	0c001162 	jal	80004588 <sd_send_cmd_blocking>
80004698:	00000000 	nop
8000469c:	afc20010 	sw	v0,16(s8)
800046a0:	8fc20010 	lw	v0,16(s8)
800046a4:	10400003 	beqz	v0,800046b4 <sd_read_sector_blocking+0x80>
800046a8:	00000000 	nop
800046ac:	10000023 	b	8000473c <sd_read_sector_blocking+0x108>
800046b0:	00000000 	nop
800046b4:	3c02bfc0 	lui	v0,0xbfc0
800046b8:	34429100 	ori	v0,v0,0x9100
800046bc:	2442003c 	addiu	v0,v0,60
800046c0:	8c420000 	lw	v0,0(v0)
800046c4:	afc20010 	sw	v0,16(s8)
800046c8:	8fc20010 	lw	v0,16(s8)
800046cc:	1040fff9 	beqz	v0,800046b4 <sd_read_sector_blocking+0x80>
800046d0:	00000000 	nop
800046d4:	8fc20010 	lw	v0,16(s8)
800046d8:	30420001 	andi	v0,v0,0x1
800046dc:	10400017 	beqz	v0,8000473c <sd_read_sector_blocking+0x108>
800046e0:	00000000 	nop
800046e4:	afc00014 	sw	zero,20(s8)
800046e8:	1000000f 	b	80004728 <sd_read_sector_blocking+0xf4>
800046ec:	00000000 	nop
800046f0:	8fc20014 	lw	v0,20(s8)
800046f4:	00021080 	sll	v0,v0,0x2
800046f8:	8fc3001c 	lw	v1,28(s8)
800046fc:	00621021 	addu	v0,v1,v0
80004700:	3c03bfc0 	lui	v1,0xbfc0
80004704:	34648000 	ori	a0,v1,0x8000
80004708:	8fc30014 	lw	v1,20(s8)
8000470c:	00031880 	sll	v1,v1,0x2
80004710:	00831821 	addu	v1,a0,v1
80004714:	8c630000 	lw	v1,0(v1)
80004718:	ac430000 	sw	v1,0(v0)
8000471c:	8fc20014 	lw	v0,20(s8)
80004720:	24420001 	addiu	v0,v0,1
80004724:	afc20014 	sw	v0,20(s8)
80004728:	8fc20014 	lw	v0,20(s8)
8000472c:	28420080 	slti	v0,v0,128
80004730:	1440ffef 	bnez	v0,800046f0 <sd_read_sector_blocking+0xbc>
80004734:	00000000 	nop
80004738:	afc00010 	sw	zero,16(s8)
8000473c:	8fc20018 	lw	v0,24(s8)
80004740:	40826000 	mtc0	v0,c0_status
80004744:	8fc20010 	lw	v0,16(s8)
80004748:	03c0e825 	move	sp,s8
8000474c:	8fbf0024 	lw	ra,36(sp)
80004750:	8fbe0020 	lw	s8,32(sp)
80004754:	27bd0028 	addiu	sp,sp,40
80004758:	03e00008 	jr	ra
8000475c:	00000000 	nop

80004760 <sd_write_sector_blocking>:
80004760:	27bdffd8 	addiu	sp,sp,-40
80004764:	afbf0024 	sw	ra,36(sp)
80004768:	afbe0020 	sw	s8,32(sp)
8000476c:	03a0f025 	move	s8,sp
80004770:	afc40028 	sw	a0,40(s8)
80004774:	afc5002c 	sw	a1,44(s8)
80004778:	40086000 	mfc0	t0,c0_status
8000477c:	01001025 	move	v0,t0
80004780:	2409fffe 	li	t1,-2
80004784:	01094024 	and	t0,t0,t1
80004788:	40886000 	mtc0	t0,c0_status
8000478c:	afc20018 	sw	v0,24(s8)
80004790:	8fc2002c 	lw	v0,44(s8)
80004794:	afc2001c 	sw	v0,28(s8)
80004798:	3c02bfc0 	lui	v0,0xbfc0
8000479c:	34429100 	ori	v0,v0,0x9100
800047a0:	24420048 	addiu	v0,v0,72
800047a4:	ac400000 	sw	zero,0(v0)
800047a8:	3c02bfc0 	lui	v0,0xbfc0
800047ac:	34429100 	ori	v0,v0,0x9100
800047b0:	2442003c 	addiu	v0,v0,60
800047b4:	ac400000 	sw	zero,0(v0)
800047b8:	afc00014 	sw	zero,20(s8)
800047bc:	1000000f 	b	800047fc <sd_write_sector_blocking+0x9c>
800047c0:	00000000 	nop
800047c4:	3c02bfc0 	lui	v0,0xbfc0
800047c8:	34438000 	ori	v1,v0,0x8000
800047cc:	8fc20014 	lw	v0,20(s8)
800047d0:	00021080 	sll	v0,v0,0x2
800047d4:	00621021 	addu	v0,v1,v0
800047d8:	8fc30014 	lw	v1,20(s8)
800047dc:	00031880 	sll	v1,v1,0x2
800047e0:	8fc4001c 	lw	a0,28(s8)
800047e4:	00831821 	addu	v1,a0,v1
800047e8:	8c630000 	lw	v1,0(v1)
800047ec:	ac430000 	sw	v1,0(v0)
800047f0:	8fc20014 	lw	v0,20(s8)
800047f4:	24420001 	addiu	v0,v0,1
800047f8:	afc20014 	sw	v0,20(s8)
800047fc:	8fc20014 	lw	v0,20(s8)
80004800:	28420080 	slti	v0,v0,128
80004804:	1440ffef 	bnez	v0,800047c4 <sd_write_sector_blocking+0x64>
80004808:	00000000 	nop
8000480c:	24041859 	li	a0,6233
80004810:	8fc50028 	lw	a1,40(s8)
80004814:	0c001162 	jal	80004588 <sd_send_cmd_blocking>
80004818:	00000000 	nop
8000481c:	afc20010 	sw	v0,16(s8)
80004820:	8fc20010 	lw	v0,16(s8)
80004824:	10400003 	beqz	v0,80004834 <sd_write_sector_blocking+0xd4>
80004828:	00000000 	nop
8000482c:	1000000e 	b	80004868 <sd_write_sector_blocking+0x108>
80004830:	00000000 	nop
80004834:	3c02bfc0 	lui	v0,0xbfc0
80004838:	34429100 	ori	v0,v0,0x9100
8000483c:	2442003c 	addiu	v0,v0,60
80004840:	8c420000 	lw	v0,0(v0)
80004844:	afc20010 	sw	v0,16(s8)
80004848:	8fc20010 	lw	v0,16(s8)
8000484c:	1040fff9 	beqz	v0,80004834 <sd_write_sector_blocking+0xd4>
80004850:	00000000 	nop
80004854:	8fc20010 	lw	v0,16(s8)
80004858:	30420001 	andi	v0,v0,0x1
8000485c:	10400002 	beqz	v0,80004868 <sd_write_sector_blocking+0x108>
80004860:	00000000 	nop
80004864:	afc00010 	sw	zero,16(s8)
80004868:	8fc20018 	lw	v0,24(s8)
8000486c:	40826000 	mtc0	v0,c0_status
80004870:	8fc20010 	lw	v0,16(s8)
80004874:	03c0e825 	move	sp,s8
80004878:	8fbf0024 	lw	ra,36(sp)
8000487c:	8fbe0020 	lw	s8,32(sp)
80004880:	27bd0028 	addiu	sp,sp,40
80004884:	03e00008 	jr	ra
80004888:	00000000 	nop

8000488c <sd_read_block>:
8000488c:	27bdffe0 	addiu	sp,sp,-32
80004890:	afbf001c 	sw	ra,28(sp)
80004894:	afbe0018 	sw	s8,24(sp)
80004898:	03a0f025 	move	s8,sp
8000489c:	afc40020 	sw	a0,32(s8)
800048a0:	afc50024 	sw	a1,36(s8)
800048a4:	afc60028 	sw	a2,40(s8)
800048a8:	8fc30028 	lw	v1,40(s8)
800048ac:	24020001 	li	v0,1
800048b0:	14620008 	bne	v1,v0,800048d4 <sd_read_block+0x48>
800048b4:	00000000 	nop
800048b8:	8fc20024 	lw	v0,36(s8)
800048bc:	00402025 	move	a0,v0
800048c0:	8fc50020 	lw	a1,32(s8)
800048c4:	0c00118d 	jal	80004634 <sd_read_sector_blocking>
800048c8:	00000000 	nop
800048cc:	1000001f 	b	8000494c <sd_read_block+0xc0>
800048d0:	00000000 	nop
800048d4:	afc00010 	sw	zero,16(s8)
800048d8:	10000016 	b	80004934 <sd_read_block+0xa8>
800048dc:	00000000 	nop
800048e0:	8fc30024 	lw	v1,36(s8)
800048e4:	8fc20010 	lw	v0,16(s8)
800048e8:	00621021 	addu	v0,v1,v0
800048ec:	00402025 	move	a0,v0
800048f0:	8fc20010 	lw	v0,16(s8)
800048f4:	00021240 	sll	v0,v0,0x9
800048f8:	8fc30020 	lw	v1,32(s8)
800048fc:	00621021 	addu	v0,v1,v0
80004900:	00402825 	move	a1,v0
80004904:	0c00118d 	jal	80004634 <sd_read_sector_blocking>
80004908:	00000000 	nop
8000490c:	afc20014 	sw	v0,20(s8)
80004910:	8fc20014 	lw	v0,20(s8)
80004914:	10400004 	beqz	v0,80004928 <sd_read_block+0x9c>
80004918:	00000000 	nop
8000491c:	24020001 	li	v0,1
80004920:	1000000a 	b	8000494c <sd_read_block+0xc0>
80004924:	00000000 	nop
80004928:	8fc20010 	lw	v0,16(s8)
8000492c:	24420001 	addiu	v0,v0,1
80004930:	afc20010 	sw	v0,16(s8)
80004934:	8fc30010 	lw	v1,16(s8)
80004938:	8fc20028 	lw	v0,40(s8)
8000493c:	0062102b 	sltu	v0,v1,v0
80004940:	1440ffe7 	bnez	v0,800048e0 <sd_read_block+0x54>
80004944:	00000000 	nop
80004948:	00001025 	move	v0,zero
8000494c:	03c0e825 	move	sp,s8
80004950:	8fbf001c 	lw	ra,28(sp)
80004954:	8fbe0018 	lw	s8,24(sp)
80004958:	27bd0020 	addiu	sp,sp,32
8000495c:	03e00008 	jr	ra
80004960:	00000000 	nop

80004964 <sd_write_block>:
80004964:	27bdffe0 	addiu	sp,sp,-32
80004968:	afbf001c 	sw	ra,28(sp)
8000496c:	afbe0018 	sw	s8,24(sp)
80004970:	03a0f025 	move	s8,sp
80004974:	afc40020 	sw	a0,32(s8)
80004978:	afc50024 	sw	a1,36(s8)
8000497c:	afc60028 	sw	a2,40(s8)
80004980:	8fc30028 	lw	v1,40(s8)
80004984:	24020001 	li	v0,1
80004988:	14620008 	bne	v1,v0,800049ac <sd_write_block+0x48>
8000498c:	00000000 	nop
80004990:	8fc20024 	lw	v0,36(s8)
80004994:	00402025 	move	a0,v0
80004998:	8fc50020 	lw	a1,32(s8)
8000499c:	0c0011d8 	jal	80004760 <sd_write_sector_blocking>
800049a0:	00000000 	nop
800049a4:	10000031 	b	80004a6c <sd_write_block+0x108>
800049a8:	00000000 	nop
800049ac:	afc00010 	sw	zero,16(s8)
800049b0:	10000028 	b	80004a54 <sd_write_block+0xf0>
800049b4:	00000000 	nop
800049b8:	8fc30024 	lw	v1,36(s8)
800049bc:	8fc20010 	lw	v0,16(s8)
800049c0:	00621021 	addu	v0,v1,v0
800049c4:	00402025 	move	a0,v0
800049c8:	8fc20010 	lw	v0,16(s8)
800049cc:	00021240 	sll	v0,v0,0x9
800049d0:	8fc30020 	lw	v1,32(s8)
800049d4:	00621021 	addu	v0,v1,v0
800049d8:	00402825 	move	a1,v0
800049dc:	0c0011d8 	jal	80004760 <sd_write_sector_blocking>
800049e0:	00000000 	nop
800049e4:	afc20014 	sw	v0,20(s8)
800049e8:	8fc20014 	lw	v0,20(s8)
800049ec:	10400016 	beqz	v0,80004a48 <sd_write_block+0xe4>
800049f0:	00000000 	nop
800049f4:	3c028000 	lui	v0,0x8000
800049f8:	244478a0 	addiu	a0,v0,30880
800049fc:	8fc50014 	lw	a1,20(s8)
80004a00:	0c00152c 	jal	800054b0 <kernel_printf>
80004a04:	00000000 	nop
80004a08:	8fc30024 	lw	v1,36(s8)
80004a0c:	8fc20010 	lw	v0,16(s8)
80004a10:	00622821 	addu	a1,v1,v0
80004a14:	8fc20010 	lw	v0,16(s8)
80004a18:	00021240 	sll	v0,v0,0x9
80004a1c:	8fc30020 	lw	v1,32(s8)
80004a20:	00621021 	addu	v0,v1,v0
80004a24:	00401825 	move	v1,v0
80004a28:	3c028000 	lui	v0,0x8000
80004a2c:	244478cc 	addiu	a0,v0,30924
80004a30:	00603025 	move	a2,v1
80004a34:	0c00152c 	jal	800054b0 <kernel_printf>
80004a38:	00000000 	nop
80004a3c:	24020001 	li	v0,1
80004a40:	1000000a 	b	80004a6c <sd_write_block+0x108>
80004a44:	00000000 	nop
80004a48:	8fc20010 	lw	v0,16(s8)
80004a4c:	24420001 	addiu	v0,v0,1
80004a50:	afc20010 	sw	v0,16(s8)
80004a54:	8fc30010 	lw	v1,16(s8)
80004a58:	8fc20028 	lw	v0,40(s8)
80004a5c:	0062102b 	sltu	v0,v1,v0
80004a60:	1440ffd5 	bnez	v0,800049b8 <sd_write_block+0x54>
80004a64:	00000000 	nop
80004a68:	00001025 	move	v0,zero
80004a6c:	03c0e825 	move	sp,s8
80004a70:	8fbf001c 	lw	ra,28(sp)
80004a74:	8fbe0018 	lw	s8,24(sp)
80004a78:	27bd0020 	addiu	sp,sp,32
80004a7c:	03e00008 	jr	ra
80004a80:	00000000 	nop

80004a84 <kernel_set_cursor>:
80004a84:	27bdfff8 	addiu	sp,sp,-8
80004a88:	afbe0004 	sw	s8,4(sp)
80004a8c:	03a0f025 	move	s8,sp
80004a90:	8f828034 	lw	v0,-32716(gp)
80004a94:	8f838058 	lw	v1,-32680(gp)
80004a98:	306300ff 	andi	v1,v1,0xff
80004a9c:	00032400 	sll	a0,v1,0x10
80004aa0:	8f83809c 	lw	v1,-32612(gp)
80004aa4:	00031a00 	sll	v1,v1,0x8
80004aa8:	3063ffff 	andi	v1,v1,0xffff
80004aac:	00832021 	addu	a0,a0,v1
80004ab0:	8f838098 	lw	v1,-32616(gp)
80004ab4:	306300ff 	andi	v1,v1,0xff
80004ab8:	00831821 	addu	v1,a0,v1
80004abc:	ac430000 	sw	v1,0(v0)
80004ac0:	03c0e825 	move	sp,s8
80004ac4:	8fbe0004 	lw	s8,4(sp)
80004ac8:	27bd0008 	addiu	sp,sp,8
80004acc:	03e00008 	jr	ra
80004ad0:	00000000 	nop

80004ad4 <init_vga>:
80004ad4:	27bdffe0 	addiu	sp,sp,-32
80004ad8:	afbf001c 	sw	ra,28(sp)
80004adc:	afbe0018 	sw	s8,24(sp)
80004ae0:	03a0f025 	move	s8,sp
80004ae4:	3c02000f 	lui	v0,0xf
80004ae8:	3442ff00 	ori	v0,v0,0xff00
80004aec:	afc20010 	sw	v0,16(s8)
80004af0:	af808098 	sw	zero,-32616(gp)
80004af4:	8f828098 	lw	v0,-32616(gp)
80004af8:	af82809c 	sw	v0,-32612(gp)
80004afc:	2402001f 	li	v0,31
80004b00:	af828058 	sw	v0,-32680(gp)
80004b04:	0c0012a1 	jal	80004a84 <kernel_set_cursor>
80004b08:	00000000 	nop
80004b0c:	03c0e825 	move	sp,s8
80004b10:	8fbf001c 	lw	ra,28(sp)
80004b14:	8fbe0018 	lw	s8,24(sp)
80004b18:	27bd0020 	addiu	sp,sp,32
80004b1c:	03e00008 	jr	ra
80004b20:	00000000 	nop

80004b24 <kernel_clear_screen>:
80004b24:	27bdffe0 	addiu	sp,sp,-32
80004b28:	afbf001c 	sw	ra,28(sp)
80004b2c:	afbe0018 	sw	s8,24(sp)
80004b30:	03a0f025 	move	s8,sp
80004b34:	afc40020 	sw	a0,32(s8)
80004b38:	3c02000f 	lui	v0,0xf
80004b3c:	3442ff00 	ori	v0,v0,0xff00
80004b40:	afc20010 	sw	v0,16(s8)
80004b44:	8fc20020 	lw	v0,32(s8)
80004b48:	3042001f 	andi	v0,v0,0x1f
80004b4c:	afc20020 	sw	v0,32(s8)
80004b50:	af808098 	sw	zero,-32616(gp)
80004b54:	af80809c 	sw	zero,-32612(gp)
80004b58:	0c0012a1 	jal	80004a84 <kernel_set_cursor>
80004b5c:	00000000 	nop
80004b60:	8f84800c 	lw	a0,-32756(gp)
80004b64:	24030080 	li	v1,128
80004b68:	8fc20020 	lw	v0,32(s8)
80004b6c:	70621002 	mul	v0,v1,v0
80004b70:	8fc50010 	lw	a1,16(s8)
80004b74:	00403025 	move	a2,v0
80004b78:	0c00189c 	jal	80006270 <kernel_memset_word>
80004b7c:	00000000 	nop
80004b80:	03c0e825 	move	sp,s8
80004b84:	8fbf001c 	lw	ra,28(sp)
80004b88:	8fbe0018 	lw	s8,24(sp)
80004b8c:	27bd0020 	addiu	sp,sp,32
80004b90:	03e00008 	jr	ra
80004b94:	00000000 	nop

80004b98 <kernel_scroll_screen>:
80004b98:	27bdffe0 	addiu	sp,sp,-32
80004b9c:	afbf001c 	sw	ra,28(sp)
80004ba0:	afbe0018 	sw	s8,24(sp)
80004ba4:	03a0f025 	move	s8,sp
80004ba8:	3c02000f 	lui	v0,0xf
80004bac:	3442ff00 	ori	v0,v0,0xff00
80004bb0:	afc20010 	sw	v0,16(s8)
80004bb4:	8f84800c 	lw	a0,-32756(gp)
80004bb8:	8f83800c 	lw	v1,-32756(gp)
80004bbc:	24020080 	li	v0,128
80004bc0:	00021080 	sll	v0,v0,0x2
80004bc4:	00622821 	addu	a1,v1,v0
80004bc8:	2402001e 	li	v0,30
80004bcc:	2443fffe 	addiu	v1,v0,-2
80004bd0:	24020080 	li	v0,128
80004bd4:	00620018 	mult	v1,v0
80004bd8:	00001012 	mflo	v0
80004bdc:	00021080 	sll	v0,v0,0x2
80004be0:	00403025 	move	a2,v0
80004be4:	0c00186e 	jal	800061b8 <kernel_memcpy>
80004be8:	00000000 	nop
80004bec:	8f83800c 	lw	v1,-32756(gp)
80004bf0:	2402001e 	li	v0,30
80004bf4:	2444fffe 	addiu	a0,v0,-2
80004bf8:	24020080 	li	v0,128
80004bfc:	70821002 	mul	v0,a0,v0
80004c00:	00021080 	sll	v0,v0,0x2
80004c04:	00621821 	addu	v1,v1,v0
80004c08:	24020080 	li	v0,128
80004c0c:	00602025 	move	a0,v1
80004c10:	8fc50010 	lw	a1,16(s8)
80004c14:	00403025 	move	a2,v0
80004c18:	0c00189c 	jal	80006270 <kernel_memset_word>
80004c1c:	00000000 	nop
80004c20:	03c0e825 	move	sp,s8
80004c24:	8fbf001c 	lw	ra,28(sp)
80004c28:	8fbe0018 	lw	s8,24(sp)
80004c2c:	27bd0020 	addiu	sp,sp,32
80004c30:	03e00008 	jr	ra
80004c34:	00000000 	nop

80004c38 <kernel_putchar_at>:
80004c38:	27bdfff0 	addiu	sp,sp,-16
80004c3c:	afbe000c 	sw	s8,12(sp)
80004c40:	03a0f025 	move	s8,sp
80004c44:	afc40010 	sw	a0,16(s8)
80004c48:	afc50014 	sw	a1,20(s8)
80004c4c:	afc60018 	sw	a2,24(s8)
80004c50:	afc7001c 	sw	a3,28(s8)
80004c54:	8fc2001c 	lw	v0,28(s8)
80004c58:	3042001f 	andi	v0,v0,0x1f
80004c5c:	afc2001c 	sw	v0,28(s8)
80004c60:	8fc20020 	lw	v0,32(s8)
80004c64:	3042007f 	andi	v0,v0,0x7f
80004c68:	afc20020 	sw	v0,32(s8)
80004c6c:	8f83800c 	lw	v1,-32756(gp)
80004c70:	24040080 	li	a0,128
80004c74:	8fc2001c 	lw	v0,28(s8)
80004c78:	70821002 	mul	v0,a0,v0
80004c7c:	00402025 	move	a0,v0
80004c80:	8fc20020 	lw	v0,32(s8)
80004c84:	00821021 	addu	v0,a0,v0
80004c88:	00021080 	sll	v0,v0,0x2
80004c8c:	00621021 	addu	v0,v1,v0
80004c90:	afc20000 	sw	v0,0(s8)
80004c94:	8fc20018 	lw	v0,24(s8)
80004c98:	00021d00 	sll	v1,v0,0x14
80004c9c:	8fc20014 	lw	v0,20(s8)
80004ca0:	30420fff 	andi	v0,v0,0xfff
80004ca4:	00021200 	sll	v0,v0,0x8
80004ca8:	00621821 	addu	v1,v1,v0
80004cac:	8fc20010 	lw	v0,16(s8)
80004cb0:	304200ff 	andi	v0,v0,0xff
80004cb4:	00621021 	addu	v0,v1,v0
80004cb8:	00401825 	move	v1,v0
80004cbc:	8fc20000 	lw	v0,0(s8)
80004cc0:	ac430000 	sw	v1,0(v0)
80004cc4:	03c0e825 	move	sp,s8
80004cc8:	8fbe000c 	lw	s8,12(sp)
80004ccc:	27bd0010 	addiu	sp,sp,16
80004cd0:	03e00008 	jr	ra
80004cd4:	00000000 	nop

80004cd8 <kernel_putchar>:
80004cd8:	27bdffd8 	addiu	sp,sp,-40
80004cdc:	afbf0024 	sw	ra,36(sp)
80004ce0:	afbe0020 	sw	s8,32(sp)
80004ce4:	03a0f025 	move	s8,sp
80004ce8:	afc40028 	sw	a0,40(s8)
80004cec:	afc5002c 	sw	a1,44(s8)
80004cf0:	afc60030 	sw	a2,48(s8)
80004cf4:	3c02000f 	lui	v0,0xf
80004cf8:	3442ff00 	ori	v0,v0,0xff00
80004cfc:	afc20018 	sw	v0,24(s8)
80004d00:	8fc30028 	lw	v1,40(s8)
80004d04:	2402000d 	li	v0,13
80004d08:	14620004 	bne	v1,v0,80004d1c <kernel_putchar+0x44>
80004d0c:	00000000 	nop
80004d10:	8fc20028 	lw	v0,40(s8)
80004d14:	10000065 	b	80004eac <kernel_putchar+0x1d4>
80004d18:	00000000 	nop
80004d1c:	8fc30028 	lw	v1,40(s8)
80004d20:	2402000a 	li	v0,10
80004d24:	14620020 	bne	v1,v0,80004da8 <kernel_putchar+0xd0>
80004d28:	00000000 	nop
80004d2c:	8f83800c 	lw	v1,-32756(gp)
80004d30:	8f84809c 	lw	a0,-32612(gp)
80004d34:	24020080 	li	v0,128
80004d38:	70821002 	mul	v0,a0,v0
80004d3c:	00402025 	move	a0,v0
80004d40:	8f828098 	lw	v0,-32616(gp)
80004d44:	00821021 	addu	v0,a0,v0
80004d48:	00021080 	sll	v0,v0,0x2
80004d4c:	00622021 	addu	a0,v1,v0
80004d50:	24030050 	li	v1,80
80004d54:	8f828098 	lw	v0,-32616(gp)
80004d58:	00621023 	subu	v0,v1,v0
80004d5c:	8fc50018 	lw	a1,24(s8)
80004d60:	00403025 	move	a2,v0
80004d64:	0c00189c 	jal	80006270 <kernel_memset_word>
80004d68:	00000000 	nop
80004d6c:	af808098 	sw	zero,-32616(gp)
80004d70:	2402001e 	li	v0,30
80004d74:	2443fffe 	addiu	v1,v0,-2
80004d78:	8f82809c 	lw	v0,-32612(gp)
80004d7c:	14620005 	bne	v1,v0,80004d94 <kernel_putchar+0xbc>
80004d80:	00000000 	nop
80004d84:	0c0012e6 	jal	80004b98 <kernel_scroll_screen>
80004d88:	00000000 	nop
80004d8c:	10000044 	b	80004ea0 <kernel_putchar+0x1c8>
80004d90:	00000000 	nop
80004d94:	8f82809c 	lw	v0,-32612(gp)
80004d98:	24420001 	addiu	v0,v0,1
80004d9c:	af82809c 	sw	v0,-32612(gp)
80004da0:	1000003f 	b	80004ea0 <kernel_putchar+0x1c8>
80004da4:	00000000 	nop
80004da8:	8fc30028 	lw	v1,40(s8)
80004dac:	24020009 	li	v0,9
80004db0:	14620026 	bne	v1,v0,80004e4c <kernel_putchar+0x174>
80004db4:	00000000 	nop
80004db8:	24020050 	li	v0,80
80004dbc:	2443fffc 	addiu	v1,v0,-4
80004dc0:	8f828098 	lw	v0,-32616(gp)
80004dc4:	0043102a 	slt	v0,v0,v1
80004dc8:	14400008 	bnez	v0,80004dec <kernel_putchar+0x114>
80004dcc:	00000000 	nop
80004dd0:	2404000a 	li	a0,10
80004dd4:	00002825 	move	a1,zero
80004dd8:	00003025 	move	a2,zero
80004ddc:	0c001336 	jal	80004cd8 <kernel_putchar>
80004de0:	00000000 	nop
80004de4:	1000002e 	b	80004ea0 <kernel_putchar+0x1c8>
80004de8:	00000000 	nop
80004dec:	8f83800c 	lw	v1,-32756(gp)
80004df0:	8f84809c 	lw	a0,-32612(gp)
80004df4:	24020080 	li	v0,128
80004df8:	70821002 	mul	v0,a0,v0
80004dfc:	00402025 	move	a0,v0
80004e00:	8f828098 	lw	v0,-32616(gp)
80004e04:	00821021 	addu	v0,a0,v0
80004e08:	00021080 	sll	v0,v0,0x2
80004e0c:	00621821 	addu	v1,v1,v0
80004e10:	8f828098 	lw	v0,-32616(gp)
80004e14:	00021023 	negu	v0,v0
80004e18:	30420003 	andi	v0,v0,0x3
80004e1c:	00602025 	move	a0,v1
80004e20:	8fc50018 	lw	a1,24(s8)
80004e24:	00403025 	move	a2,v0
80004e28:	0c00189c 	jal	80006270 <kernel_memset_word>
80004e2c:	00000000 	nop
80004e30:	8f828098 	lw	v0,-32616(gp)
80004e34:	24430004 	addiu	v1,v0,4
80004e38:	2402fffc 	li	v0,-4
80004e3c:	00621024 	and	v0,v1,v0
80004e40:	af828098 	sw	v0,-32616(gp)
80004e44:	10000016 	b	80004ea0 <kernel_putchar+0x1c8>
80004e48:	00000000 	nop
80004e4c:	8f838098 	lw	v1,-32616(gp)
80004e50:	24020050 	li	v0,80
80004e54:	14620006 	bne	v1,v0,80004e70 <kernel_putchar+0x198>
80004e58:	00000000 	nop
80004e5c:	2404000a 	li	a0,10
80004e60:	00002825 	move	a1,zero
80004e64:	00003025 	move	a2,zero
80004e68:	0c001336 	jal	80004cd8 <kernel_putchar>
80004e6c:	00000000 	nop
80004e70:	8f83809c 	lw	v1,-32612(gp)
80004e74:	8f828098 	lw	v0,-32616(gp)
80004e78:	afa20010 	sw	v0,16(sp)
80004e7c:	8fc40028 	lw	a0,40(s8)
80004e80:	8fc5002c 	lw	a1,44(s8)
80004e84:	8fc60030 	lw	a2,48(s8)
80004e88:	00603825 	move	a3,v1
80004e8c:	0c00130e 	jal	80004c38 <kernel_putchar_at>
80004e90:	00000000 	nop
80004e94:	8f828098 	lw	v0,-32616(gp)
80004e98:	24420001 	addiu	v0,v0,1
80004e9c:	af828098 	sw	v0,-32616(gp)
80004ea0:	0c0012a1 	jal	80004a84 <kernel_set_cursor>
80004ea4:	00000000 	nop
80004ea8:	8fc20028 	lw	v0,40(s8)
80004eac:	03c0e825 	move	sp,s8
80004eb0:	8fbf0024 	lw	ra,36(sp)
80004eb4:	8fbe0020 	lw	s8,32(sp)
80004eb8:	27bd0028 	addiu	sp,sp,40
80004ebc:	03e00008 	jr	ra
80004ec0:	00000000 	nop

80004ec4 <kernel_puts>:
80004ec4:	27bdffe0 	addiu	sp,sp,-32
80004ec8:	afbf001c 	sw	ra,28(sp)
80004ecc:	afbe0018 	sw	s8,24(sp)
80004ed0:	03a0f025 	move	s8,sp
80004ed4:	afc40020 	sw	a0,32(s8)
80004ed8:	afc50024 	sw	a1,36(s8)
80004edc:	afc60028 	sw	a2,40(s8)
80004ee0:	afc00010 	sw	zero,16(s8)
80004ee4:	1000000d 	b	80004f1c <kernel_puts+0x58>
80004ee8:	00000000 	nop
80004eec:	8fc20010 	lw	v0,16(s8)
80004ef0:	24420001 	addiu	v0,v0,1
80004ef4:	afc20010 	sw	v0,16(s8)
80004ef8:	8fc20020 	lw	v0,32(s8)
80004efc:	24430001 	addiu	v1,v0,1
80004f00:	afc30020 	sw	v1,32(s8)
80004f04:	90420000 	lbu	v0,0(v0)
80004f08:	00402025 	move	a0,v0
80004f0c:	8fc50024 	lw	a1,36(s8)
80004f10:	8fc60028 	lw	a2,40(s8)
80004f14:	0c001336 	jal	80004cd8 <kernel_putchar>
80004f18:	00000000 	nop
80004f1c:	8fc20020 	lw	v0,32(s8)
80004f20:	90420000 	lbu	v0,0(v0)
80004f24:	1440fff1 	bnez	v0,80004eec <kernel_puts+0x28>
80004f28:	00000000 	nop
80004f2c:	8fc20010 	lw	v0,16(s8)
80004f30:	03c0e825 	move	sp,s8
80004f34:	8fbf001c 	lw	ra,28(sp)
80004f38:	8fbe0018 	lw	s8,24(sp)
80004f3c:	27bd0020 	addiu	sp,sp,32
80004f40:	03e00008 	jr	ra
80004f44:	00000000 	nop

80004f48 <kernel_putint>:
80004f48:	27bdffd0 	addiu	sp,sp,-48
80004f4c:	afbf002c 	sw	ra,44(sp)
80004f50:	afbe0028 	sw	s8,40(sp)
80004f54:	03a0f025 	move	s8,sp
80004f58:	afc40030 	sw	a0,48(s8)
80004f5c:	afc50034 	sw	a1,52(s8)
80004f60:	afc60038 	sw	a2,56(s8)
80004f64:	27c20018 	addiu	v0,s8,24
80004f68:	2442000b 	addiu	v0,v0,11
80004f6c:	afc20010 	sw	v0,16(s8)
80004f70:	afc00014 	sw	zero,20(s8)
80004f74:	a3c00023 	sb	zero,35(s8)
80004f78:	8fc20030 	lw	v0,48(s8)
80004f7c:	14400009 	bnez	v0,80004fa4 <kernel_putint+0x5c>
80004f80:	00000000 	nop
80004f84:	24040030 	li	a0,48
80004f88:	8fc50034 	lw	a1,52(s8)
80004f8c:	8fc60038 	lw	a2,56(s8)
80004f90:	0c001336 	jal	80004cd8 <kernel_putchar>
80004f94:	00000000 	nop
80004f98:	8fc20030 	lw	v0,48(s8)
80004f9c:	1000003b 	b	8000508c <kernel_putint+0x144>
80004fa0:	00000000 	nop
80004fa4:	8fc20030 	lw	v0,48(s8)
80004fa8:	04410006 	bgez	v0,80004fc4 <kernel_putint+0x7c>
80004fac:	00000000 	nop
80004fb0:	24020001 	li	v0,1
80004fb4:	afc20014 	sw	v0,20(s8)
80004fb8:	8fc20030 	lw	v0,48(s8)
80004fbc:	00021023 	negu	v0,v0
80004fc0:	afc20030 	sw	v0,48(s8)
80004fc4:	1000001f 	b	80005044 <kernel_putint+0xfc>
80004fc8:	00000000 	nop
80004fcc:	8fc20010 	lw	v0,16(s8)
80004fd0:	2442ffff 	addiu	v0,v0,-1
80004fd4:	afc20010 	sw	v0,16(s8)
80004fd8:	8fc30030 	lw	v1,48(s8)
80004fdc:	3c026666 	lui	v0,0x6666
80004fe0:	34426667 	ori	v0,v0,0x6667
80004fe4:	00620018 	mult	v1,v0
80004fe8:	00002012 	mflo	a0
80004fec:	00002810 	mfhi	a1
80004ff0:	00052083 	sra	a0,a1,0x2
80004ff4:	000317c3 	sra	v0,v1,0x1f
80004ff8:	00821023 	subu	v0,a0,v0
80004ffc:	00021040 	sll	v0,v0,0x1
80005000:	00022080 	sll	a0,v0,0x2
80005004:	00441021 	addu	v0,v0,a0
80005008:	00621023 	subu	v0,v1,v0
8000500c:	304200ff 	andi	v0,v0,0xff
80005010:	24420030 	addiu	v0,v0,48
80005014:	304300ff 	andi	v1,v0,0xff
80005018:	8fc20010 	lw	v0,16(s8)
8000501c:	a0430000 	sb	v1,0(v0)
80005020:	8fc20030 	lw	v0,48(s8)
80005024:	3c036666 	lui	v1,0x6666
80005028:	34636667 	ori	v1,v1,0x6667
8000502c:	00430018 	mult	v0,v1
80005030:	00001810 	mfhi	v1
80005034:	00031883 	sra	v1,v1,0x2
80005038:	000217c3 	sra	v0,v0,0x1f
8000503c:	00621023 	subu	v0,v1,v0
80005040:	afc20030 	sw	v0,48(s8)
80005044:	8fc20030 	lw	v0,48(s8)
80005048:	1440ffe0 	bnez	v0,80004fcc <kernel_putint+0x84>
8000504c:	00000000 	nop
80005050:	8fc20014 	lw	v0,20(s8)
80005054:	10400007 	beqz	v0,80005074 <kernel_putint+0x12c>
80005058:	00000000 	nop
8000505c:	8fc20010 	lw	v0,16(s8)
80005060:	2442ffff 	addiu	v0,v0,-1
80005064:	afc20010 	sw	v0,16(s8)
80005068:	8fc20010 	lw	v0,16(s8)
8000506c:	2403002d 	li	v1,45
80005070:	a0430000 	sb	v1,0(v0)
80005074:	8fc40010 	lw	a0,16(s8)
80005078:	8fc50034 	lw	a1,52(s8)
8000507c:	8fc60038 	lw	a2,56(s8)
80005080:	0c0013b1 	jal	80004ec4 <kernel_puts>
80005084:	00000000 	nop
80005088:	8fc20030 	lw	v0,48(s8)
8000508c:	03c0e825 	move	sp,s8
80005090:	8fbf002c 	lw	ra,44(sp)
80005094:	8fbe0028 	lw	s8,40(sp)
80005098:	27bd0030 	addiu	sp,sp,48
8000509c:	03e00008 	jr	ra
800050a0:	00000000 	nop

800050a4 <kernel_putintx>:
800050a4:	27bdffd8 	addiu	sp,sp,-40
800050a8:	afbf0024 	sw	ra,36(sp)
800050ac:	afbe0020 	sw	s8,32(sp)
800050b0:	03a0f025 	move	s8,sp
800050b4:	afc40028 	sw	a0,40(s8)
800050b8:	afc5002c 	sw	a1,44(s8)
800050bc:	afc60030 	sw	a2,48(s8)
800050c0:	27c20014 	addiu	v0,s8,20
800050c4:	2442000b 	addiu	v0,v0,11
800050c8:	afc20010 	sw	v0,16(s8)
800050cc:	a3c0001f 	sb	zero,31(s8)
800050d0:	8fc20028 	lw	v0,40(s8)
800050d4:	14400009 	bnez	v0,800050fc <kernel_putintx+0x58>
800050d8:	00000000 	nop
800050dc:	24040030 	li	a0,48
800050e0:	8fc5002c 	lw	a1,44(s8)
800050e4:	8fc60030 	lw	a2,48(s8)
800050e8:	0c001336 	jal	80004cd8 <kernel_putchar>
800050ec:	00000000 	nop
800050f0:	8fc20028 	lw	v0,40(s8)
800050f4:	10000019 	b	8000515c <kernel_putintx+0xb8>
800050f8:	00000000 	nop
800050fc:	1000000e 	b	80005138 <kernel_putintx+0x94>
80005100:	00000000 	nop
80005104:	8fc20010 	lw	v0,16(s8)
80005108:	2442ffff 	addiu	v0,v0,-1
8000510c:	afc20010 	sw	v0,16(s8)
80005110:	8f83805c 	lw	v1,-32676(gp)
80005114:	8fc20028 	lw	v0,40(s8)
80005118:	3042000f 	andi	v0,v0,0xf
8000511c:	00621021 	addu	v0,v1,v0
80005120:	90430000 	lbu	v1,0(v0)
80005124:	8fc20010 	lw	v0,16(s8)
80005128:	a0430000 	sb	v1,0(v0)
8000512c:	8fc20028 	lw	v0,40(s8)
80005130:	00021102 	srl	v0,v0,0x4
80005134:	afc20028 	sw	v0,40(s8)
80005138:	8fc20028 	lw	v0,40(s8)
8000513c:	1440fff1 	bnez	v0,80005104 <kernel_putintx+0x60>
80005140:	00000000 	nop
80005144:	8fc40010 	lw	a0,16(s8)
80005148:	8fc5002c 	lw	a1,44(s8)
8000514c:	8fc60030 	lw	a2,48(s8)
80005150:	0c0013b1 	jal	80004ec4 <kernel_puts>
80005154:	00000000 	nop
80005158:	8fc20028 	lw	v0,40(s8)
8000515c:	03c0e825 	move	sp,s8
80005160:	8fbf0024 	lw	ra,36(sp)
80005164:	8fbe0020 	lw	s8,32(sp)
80005168:	27bd0028 	addiu	sp,sp,40
8000516c:	03e00008 	jr	ra
80005170:	00000000 	nop

80005174 <kernel_putinto>:
80005174:	27bdffd8 	addiu	sp,sp,-40
80005178:	afbf0024 	sw	ra,36(sp)
8000517c:	afbe0020 	sw	s8,32(sp)
80005180:	03a0f025 	move	s8,sp
80005184:	afc40028 	sw	a0,40(s8)
80005188:	afc5002c 	sw	a1,44(s8)
8000518c:	afc60030 	sw	a2,48(s8)
80005190:	27c20014 	addiu	v0,s8,20
80005194:	2442000b 	addiu	v0,v0,11
80005198:	afc20010 	sw	v0,16(s8)
8000519c:	a3c0001f 	sb	zero,31(s8)
800051a0:	8fc20028 	lw	v0,40(s8)
800051a4:	14400009 	bnez	v0,800051cc <kernel_putinto+0x58>
800051a8:	00000000 	nop
800051ac:	24040030 	li	a0,48
800051b0:	8fc5002c 	lw	a1,44(s8)
800051b4:	8fc60030 	lw	a2,48(s8)
800051b8:	0c001336 	jal	80004cd8 <kernel_putchar>
800051bc:	00000000 	nop
800051c0:	8fc20028 	lw	v0,40(s8)
800051c4:	10000019 	b	8000522c <kernel_putinto+0xb8>
800051c8:	00000000 	nop
800051cc:	1000000e 	b	80005208 <kernel_putinto+0x94>
800051d0:	00000000 	nop
800051d4:	8fc20010 	lw	v0,16(s8)
800051d8:	2442ffff 	addiu	v0,v0,-1
800051dc:	afc20010 	sw	v0,16(s8)
800051e0:	8f83805c 	lw	v1,-32676(gp)
800051e4:	8fc20028 	lw	v0,40(s8)
800051e8:	30420007 	andi	v0,v0,0x7
800051ec:	00621021 	addu	v0,v1,v0
800051f0:	90430000 	lbu	v1,0(v0)
800051f4:	8fc20010 	lw	v0,16(s8)
800051f8:	a0430000 	sb	v1,0(v0)
800051fc:	8fc20028 	lw	v0,40(s8)
80005200:	000210c2 	srl	v0,v0,0x3
80005204:	afc20028 	sw	v0,40(s8)
80005208:	8fc20028 	lw	v0,40(s8)
8000520c:	1440fff1 	bnez	v0,800051d4 <kernel_putinto+0x60>
80005210:	00000000 	nop
80005214:	8fc40010 	lw	a0,16(s8)
80005218:	8fc5002c 	lw	a1,44(s8)
8000521c:	8fc60030 	lw	a2,48(s8)
80005220:	0c0013b1 	jal	80004ec4 <kernel_puts>
80005224:	00000000 	nop
80005228:	8fc20028 	lw	v0,40(s8)
8000522c:	03c0e825 	move	sp,s8
80005230:	8fbf0024 	lw	ra,36(sp)
80005234:	8fbe0020 	lw	s8,32(sp)
80005238:	27bd0028 	addiu	sp,sp,40
8000523c:	03e00008 	jr	ra
80005240:	00000000 	nop

80005244 <kernel_vprintf>:
80005244:	27bdffd0 	addiu	sp,sp,-48
80005248:	afbf002c 	sw	ra,44(sp)
8000524c:	afbe0028 	sw	s8,40(sp)
80005250:	03a0f025 	move	s8,sp
80005254:	afc40030 	sw	a0,48(s8)
80005258:	afc50034 	sw	a1,52(s8)
8000525c:	afc00010 	sw	zero,16(s8)
80005260:	10000088 	b	80005484 <kernel_vprintf+0x240>
80005264:	00000000 	nop
80005268:	8fc20030 	lw	v0,48(s8)
8000526c:	90430000 	lbu	v1,0(v0)
80005270:	24020025 	li	v0,37
80005274:	1062000c 	beq	v1,v0,800052a8 <kernel_vprintf+0x64>
80005278:	00000000 	nop
8000527c:	8fc20030 	lw	v0,48(s8)
80005280:	24430001 	addiu	v1,v0,1
80005284:	afc30030 	sw	v1,48(s8)
80005288:	90420000 	lbu	v0,0(v0)
8000528c:	00402025 	move	a0,v0
80005290:	24050fff 	li	a1,4095
80005294:	00003025 	move	a2,zero
80005298:	0c001336 	jal	80004cd8 <kernel_putchar>
8000529c:	00000000 	nop
800052a0:	10000078 	b	80005484 <kernel_vprintf+0x240>
800052a4:	00000000 	nop
800052a8:	8fc20030 	lw	v0,48(s8)
800052ac:	24420001 	addiu	v0,v0,1
800052b0:	afc20030 	sw	v0,48(s8)
800052b4:	8fc20030 	lw	v0,48(s8)
800052b8:	90420000 	lbu	v0,0(v0)
800052bc:	2442ff9d 	addiu	v0,v0,-99
800052c0:	2c430016 	sltiu	v1,v0,22
800052c4:	1060006b 	beqz	v1,80005474 <kernel_vprintf+0x230>
800052c8:	00000000 	nop
800052cc:	00021880 	sll	v1,v0,0x2
800052d0:	3c028000 	lui	v0,0x8000
800052d4:	244278f4 	addiu	v0,v0,30964
800052d8:	00621021 	addu	v0,v1,v0
800052dc:	8c420000 	lw	v0,0(v0)
800052e0:	00400008 	jr	v0
800052e4:	00000000 	nop
800052e8:	8fc20034 	lw	v0,52(s8)
800052ec:	24420004 	addiu	v0,v0,4
800052f0:	afc20034 	sw	v0,52(s8)
800052f4:	8fc20034 	lw	v0,52(s8)
800052f8:	2442fffc 	addiu	v0,v0,-4
800052fc:	8c420000 	lw	v0,0(v0)
80005300:	a3c20014 	sb	v0,20(s8)
80005304:	93c20014 	lbu	v0,20(s8)
80005308:	00402025 	move	a0,v0
8000530c:	24050fff 	li	a1,4095
80005310:	00003025 	move	a2,zero
80005314:	0c001336 	jal	80004cd8 <kernel_putchar>
80005318:	00000000 	nop
8000531c:	8fc20030 	lw	v0,48(s8)
80005320:	24420001 	addiu	v0,v0,1
80005324:	afc20030 	sw	v0,48(s8)
80005328:	8fc20010 	lw	v0,16(s8)
8000532c:	24420001 	addiu	v0,v0,1
80005330:	afc20010 	sw	v0,16(s8)
80005334:	10000053 	b	80005484 <kernel_vprintf+0x240>
80005338:	00000000 	nop
8000533c:	8fc20034 	lw	v0,52(s8)
80005340:	24420004 	addiu	v0,v0,4
80005344:	afc20034 	sw	v0,52(s8)
80005348:	8fc20034 	lw	v0,52(s8)
8000534c:	8c42fffc 	lw	v0,-4(v0)
80005350:	afc20018 	sw	v0,24(s8)
80005354:	8fc40018 	lw	a0,24(s8)
80005358:	24050fff 	li	a1,4095
8000535c:	00003025 	move	a2,zero
80005360:	0c0013d2 	jal	80004f48 <kernel_putint>
80005364:	00000000 	nop
80005368:	8fc20030 	lw	v0,48(s8)
8000536c:	24420001 	addiu	v0,v0,1
80005370:	afc20030 	sw	v0,48(s8)
80005374:	8fc20010 	lw	v0,16(s8)
80005378:	24420001 	addiu	v0,v0,1
8000537c:	afc20010 	sw	v0,16(s8)
80005380:	10000040 	b	80005484 <kernel_vprintf+0x240>
80005384:	00000000 	nop
80005388:	8fc20034 	lw	v0,52(s8)
8000538c:	24420004 	addiu	v0,v0,4
80005390:	afc20034 	sw	v0,52(s8)
80005394:	8fc20034 	lw	v0,52(s8)
80005398:	8c42fffc 	lw	v0,-4(v0)
8000539c:	afc2001c 	sw	v0,28(s8)
800053a0:	8fc2001c 	lw	v0,28(s8)
800053a4:	00402025 	move	a0,v0
800053a8:	24050fff 	li	a1,4095
800053ac:	00003025 	move	a2,zero
800053b0:	0c001429 	jal	800050a4 <kernel_putintx>
800053b4:	00000000 	nop
800053b8:	8fc20030 	lw	v0,48(s8)
800053bc:	24420001 	addiu	v0,v0,1
800053c0:	afc20030 	sw	v0,48(s8)
800053c4:	8fc20010 	lw	v0,16(s8)
800053c8:	24420001 	addiu	v0,v0,1
800053cc:	afc20010 	sw	v0,16(s8)
800053d0:	1000002c 	b	80005484 <kernel_vprintf+0x240>
800053d4:	00000000 	nop
800053d8:	8fc20034 	lw	v0,52(s8)
800053dc:	24420004 	addiu	v0,v0,4
800053e0:	afc20034 	sw	v0,52(s8)
800053e4:	8fc20034 	lw	v0,52(s8)
800053e8:	8c42fffc 	lw	v0,-4(v0)
800053ec:	afc20020 	sw	v0,32(s8)
800053f0:	8fc40020 	lw	a0,32(s8)
800053f4:	24050fff 	li	a1,4095
800053f8:	00003025 	move	a2,zero
800053fc:	0c0013b1 	jal	80004ec4 <kernel_puts>
80005400:	00000000 	nop
80005404:	8fc20030 	lw	v0,48(s8)
80005408:	24420001 	addiu	v0,v0,1
8000540c:	afc20030 	sw	v0,48(s8)
80005410:	8fc20010 	lw	v0,16(s8)
80005414:	24420001 	addiu	v0,v0,1
80005418:	afc20010 	sw	v0,16(s8)
8000541c:	10000019 	b	80005484 <kernel_vprintf+0x240>
80005420:	00000000 	nop
80005424:	8fc20034 	lw	v0,52(s8)
80005428:	24420004 	addiu	v0,v0,4
8000542c:	afc20034 	sw	v0,52(s8)
80005430:	8fc20034 	lw	v0,52(s8)
80005434:	8c42fffc 	lw	v0,-4(v0)
80005438:	afc20024 	sw	v0,36(s8)
8000543c:	8fc20024 	lw	v0,36(s8)
80005440:	00402025 	move	a0,v0
80005444:	24050fff 	li	a1,4095
80005448:	00003025 	move	a2,zero
8000544c:	0c00145d 	jal	80005174 <kernel_putinto>
80005450:	00000000 	nop
80005454:	8fc20030 	lw	v0,48(s8)
80005458:	24420001 	addiu	v0,v0,1
8000545c:	afc20030 	sw	v0,48(s8)
80005460:	8fc20010 	lw	v0,16(s8)
80005464:	24420001 	addiu	v0,v0,1
80005468:	afc20010 	sw	v0,16(s8)
8000546c:	10000005 	b	80005484 <kernel_vprintf+0x240>
80005470:	00000000 	nop
80005474:	2402ffff 	li	v0,-1
80005478:	afc20010 	sw	v0,16(s8)
8000547c:	10000005 	b	80005494 <kernel_vprintf+0x250>
80005480:	00000000 	nop
80005484:	8fc20030 	lw	v0,48(s8)
80005488:	90420000 	lbu	v0,0(v0)
8000548c:	1440ff76 	bnez	v0,80005268 <kernel_vprintf+0x24>
80005490:	00000000 	nop
80005494:	8fc20010 	lw	v0,16(s8)
80005498:	03c0e825 	move	sp,s8
8000549c:	8fbf002c 	lw	ra,44(sp)
800054a0:	8fbe0028 	lw	s8,40(sp)
800054a4:	27bd0030 	addiu	sp,sp,48
800054a8:	03e00008 	jr	ra
800054ac:	00000000 	nop

800054b0 <kernel_printf>:
800054b0:	27bdffe0 	addiu	sp,sp,-32
800054b4:	afbf001c 	sw	ra,28(sp)
800054b8:	afbe0018 	sw	s8,24(sp)
800054bc:	03a0f025 	move	s8,sp
800054c0:	afc50024 	sw	a1,36(s8)
800054c4:	afc60028 	sw	a2,40(s8)
800054c8:	afc7002c 	sw	a3,44(s8)
800054cc:	afc40020 	sw	a0,32(s8)
800054d0:	afc00010 	sw	zero,16(s8)
800054d4:	27c20024 	addiu	v0,s8,36
800054d8:	afc20014 	sw	v0,20(s8)
800054dc:	8fc20020 	lw	v0,32(s8)
800054e0:	00402025 	move	a0,v0
800054e4:	8fc50014 	lw	a1,20(s8)
800054e8:	0c001491 	jal	80005244 <kernel_vprintf>
800054ec:	00000000 	nop
800054f0:	afc20010 	sw	v0,16(s8)
800054f4:	afc00014 	sw	zero,20(s8)
800054f8:	8fc20010 	lw	v0,16(s8)
800054fc:	03c0e825 	move	sp,s8
80005500:	8fbf001c 	lw	ra,28(sp)
80005504:	8fbe0018 	lw	s8,24(sp)
80005508:	27bd0020 	addiu	sp,sp,32
8000550c:	03e00008 	jr	ra
80005510:	00000000 	nop

80005514 <init_buffer>:
80005514:	27bdfff0 	addiu	sp,sp,-16
80005518:	afbe000c 	sw	s8,12(sp)
8000551c:	03a0f025 	move	s8,sp
80005520:	afc00000 	sw	zero,0(s8)
80005524:	afc00000 	sw	zero,0(s8)
80005528:	10000010 	b	8000556c <init_buffer+0x58>
8000552c:	00000000 	nop
80005530:	3c028000 	lui	v0,0x8000
80005534:	8fc30000 	lw	v1,0(s8)
80005538:	00031880 	sll	v1,v1,0x2
8000553c:	24427d74 	addiu	v0,v0,32116
80005540:	00621021 	addu	v0,v1,v0
80005544:	ac400000 	sw	zero,0(v0)
80005548:	3c028000 	lui	v0,0x8000
8000554c:	8fc30000 	lw	v1,0(s8)
80005550:	00031880 	sll	v1,v1,0x2
80005554:	24427df4 	addiu	v0,v0,32244
80005558:	00621021 	addu	v0,v1,v0
8000555c:	ac400000 	sw	zero,0(v0)
80005560:	8fc20000 	lw	v0,0(s8)
80005564:	24420001 	addiu	v0,v0,1
80005568:	afc20000 	sw	v0,0(s8)
8000556c:	8fc20000 	lw	v0,0(s8)
80005570:	28420020 	slti	v0,v0,32
80005574:	1440ffee 	bnez	v0,80005530 <init_buffer+0x1c>
80005578:	00000000 	nop
8000557c:	af80806c 	sw	zero,-32660(gp)
80005580:	af808070 	sw	zero,-32656(gp)
80005584:	03c0e825 	move	sp,s8
80005588:	8fbe000c 	lw	s8,12(sp)
8000558c:	27bd0010 	addiu	sp,sp,16
80005590:	03e00008 	jr	ra
80005594:	00000000 	nop

80005598 <init_ps2>:
80005598:	27bdffe8 	addiu	sp,sp,-24
8000559c:	afbf0014 	sw	ra,20(sp)
800055a0:	afbe0010 	sw	s8,16(sp)
800055a4:	03a0f025 	move	s8,sp
800055a8:	0c001545 	jal	80005514 <init_buffer>
800055ac:	00000000 	nop
800055b0:	24040002 	li	a0,2
800055b4:	3c028000 	lui	v0,0x8000
800055b8:	244555f0 	addiu	a1,v0,22000
800055bc:	0c0004ae 	jal	800012b8 <register_interrupt_handler>
800055c0:	00000000 	nop
800055c4:	3c02bfc0 	lui	v0,0xbfc0
800055c8:	34429010 	ori	v0,v0,0x9010
800055cc:	24420004 	addiu	v0,v0,4
800055d0:	2403ffff 	li	v1,-1
800055d4:	ac430000 	sw	v1,0(v0)
800055d8:	03c0e825 	move	sp,s8
800055dc:	8fbf0014 	lw	ra,20(sp)
800055e0:	8fbe0010 	lw	s8,16(sp)
800055e4:	27bd0018 	addiu	sp,sp,24
800055e8:	03e00008 	jr	ra
800055ec:	00000000 	nop

800055f0 <ps2_handler>:
800055f0:	27bdfff0 	addiu	sp,sp,-16
800055f4:	afbe000c 	sw	s8,12(sp)
800055f8:	03a0f025 	move	s8,sp
800055fc:	afc40010 	sw	a0,16(s8)
80005600:	afc50014 	sw	a1,20(s8)
80005604:	afc60018 	sw	a2,24(s8)
80005608:	3c02bfc0 	lui	v0,0xbfc0
8000560c:	34429010 	ori	v0,v0,0x9010
80005610:	8c420004 	lw	v0,4(v0)
80005614:	afc20000 	sw	v0,0(s8)
80005618:	8fc20000 	lw	v0,0(s8)
8000561c:	00021402 	srl	v0,v0,0x10
80005620:	30420007 	andi	v0,v0,0x7
80005624:	10400003 	beqz	v0,80005634 <ps2_handler+0x44>
80005628:	00000000 	nop
8000562c:	100000a9 	b	800058d4 <ps2_handler+0x2e4>
80005630:	00000000 	nop
80005634:	100000a3 	b	800058c4 <ps2_handler+0x2d4>
80005638:	00000000 	nop
8000563c:	3c02bfc0 	lui	v0,0xbfc0
80005640:	34429010 	ori	v0,v0,0x9010
80005644:	8c420000 	lw	v0,0(v0)
80005648:	afc20004 	sw	v0,4(s8)
8000564c:	8fc30004 	lw	v1,4(s8)
80005650:	240200fa 	li	v0,250
80005654:	1462000e 	bne	v1,v0,80005690 <ps2_handler+0xa0>
80005658:	00000000 	nop
8000565c:	8f838078 	lw	v1,-32648(gp)
80005660:	24020001 	li	v0,1
80005664:	14620007 	bne	v1,v0,80005684 <ps2_handler+0x94>
80005668:	00000000 	nop
8000566c:	3c02bfc0 	lui	v0,0xbfc0
80005670:	34429010 	ori	v0,v0,0x9010
80005674:	8f838068 	lw	v1,-32664(gp)
80005678:	30630007 	andi	v1,v1,0x7
8000567c:	ac430000 	sw	v1,0(v0)
80005680:	00000000 	nop
80005684:	af808078 	sw	zero,-32648(gp)
80005688:	1000008e 	b	800058c4 <ps2_handler+0x2d4>
8000568c:	00000000 	nop
80005690:	8f828074 	lw	v0,-32652(gp)
80005694:	00021a00 	sll	v1,v0,0x8
80005698:	8fc20004 	lw	v0,4(s8)
8000569c:	00621025 	or	v0,v1,v0
800056a0:	af828074 	sw	v0,-32652(gp)
800056a4:	8fc20004 	lw	v0,4(s8)
800056a8:	2c420080 	sltiu	v0,v0,128
800056ac:	10400081 	beqz	v0,800058b4 <ps2_handler+0x2c4>
800056b0:	00000000 	nop
800056b4:	8f828074 	lw	v0,-32652(gp)
800056b8:	3043007f 	andi	v1,v0,0x7f
800056bc:	8f828074 	lw	v0,-32652(gp)
800056c0:	14620013 	bne	v1,v0,80005710 <ps2_handler+0x120>
800056c4:	00000000 	nop
800056c8:	8f84806c 	lw	a0,-32660(gp)
800056cc:	8f838074 	lw	v1,-32652(gp)
800056d0:	3c028000 	lui	v0,0x8000
800056d4:	00042080 	sll	a0,a0,0x2
800056d8:	24427d74 	addiu	v0,v0,32116
800056dc:	00821021 	addu	v0,a0,v0
800056e0:	ac430000 	sw	v1,0(v0)
800056e4:	8f83806c 	lw	v1,-32660(gp)
800056e8:	3c028000 	lui	v0,0x8000
800056ec:	00031880 	sll	v1,v1,0x2
800056f0:	24427df4 	addiu	v0,v0,32244
800056f4:	00621021 	addu	v0,v1,v0
800056f8:	24030001 	li	v1,1
800056fc:	ac430000 	sw	v1,0(v0)
80005700:	8f82806c 	lw	v0,-32660(gp)
80005704:	24420001 	addiu	v0,v0,1
80005708:	3042001f 	andi	v0,v0,0x1f
8000570c:	af82806c 	sw	v0,-32660(gp)
80005710:	8f828074 	lw	v0,-32652(gp)
80005714:	3403e014 	li	v1,0xe014
80005718:	10430050 	beq	v0,v1,8000585c <ps2_handler+0x26c>
8000571c:	00000000 	nop
80005720:	3403e015 	li	v1,0xe015
80005724:	0043182b 	sltu	v1,v0,v1
80005728:	1060001a 	beqz	v1,80005794 <ps2_handler+0x1a4>
8000572c:	00000000 	nop
80005730:	24030014 	li	v1,20
80005734:	10430049 	beq	v0,v1,8000585c <ps2_handler+0x26c>
80005738:	00000000 	nop
8000573c:	2c430015 	sltiu	v1,v0,21
80005740:	10600009 	beqz	v1,80005768 <ps2_handler+0x178>
80005744:	00000000 	nop
80005748:	24030011 	li	v1,17
8000574c:	1043004e 	beq	v0,v1,80005888 <ps2_handler+0x298>
80005750:	00000000 	nop
80005754:	24030012 	li	v1,18
80005758:	10430035 	beq	v0,v1,80005830 <ps2_handler+0x240>
8000575c:	00000000 	nop
80005760:	10000053 	b	800058b0 <ps2_handler+0x2c0>
80005764:	00000000 	nop
80005768:	24030059 	li	v1,89
8000576c:	10430030 	beq	v0,v1,80005830 <ps2_handler+0x240>
80005770:	00000000 	nop
80005774:	3403e011 	li	v1,0xe011
80005778:	10430043 	beq	v0,v1,80005888 <ps2_handler+0x298>
8000577c:	00000000 	nop
80005780:	24030058 	li	v1,88
80005784:	1043001f 	beq	v0,v1,80005804 <ps2_handler+0x214>
80005788:	00000000 	nop
8000578c:	10000048 	b	800058b0 <ps2_handler+0x2c0>
80005790:	00000000 	nop
80005794:	3403f014 	li	v1,0xf014
80005798:	10430035 	beq	v0,v1,80005870 <ps2_handler+0x280>
8000579c:	00000000 	nop
800057a0:	3403f015 	li	v1,0xf015
800057a4:	0043182b 	sltu	v1,v0,v1
800057a8:	10600009 	beqz	v1,800057d0 <ps2_handler+0x1e0>
800057ac:	00000000 	nop
800057b0:	3403f011 	li	v1,0xf011
800057b4:	10430039 	beq	v0,v1,8000589c <ps2_handler+0x2ac>
800057b8:	00000000 	nop
800057bc:	3403f012 	li	v1,0xf012
800057c0:	10430020 	beq	v0,v1,80005844 <ps2_handler+0x254>
800057c4:	00000000 	nop
800057c8:	10000039 	b	800058b0 <ps2_handler+0x2c0>
800057cc:	00000000 	nop
800057d0:	3c0300e0 	lui	v1,0xe0
800057d4:	3463f011 	ori	v1,v1,0xf011
800057d8:	10430030 	beq	v0,v1,8000589c <ps2_handler+0x2ac>
800057dc:	00000000 	nop
800057e0:	3c0300e0 	lui	v1,0xe0
800057e4:	3463f014 	ori	v1,v1,0xf014
800057e8:	10430021 	beq	v0,v1,80005870 <ps2_handler+0x280>
800057ec:	00000000 	nop
800057f0:	3403f059 	li	v1,0xf059
800057f4:	10430013 	beq	v0,v1,80005844 <ps2_handler+0x254>
800057f8:	00000000 	nop
800057fc:	1000002c 	b	800058b0 <ps2_handler+0x2c0>
80005800:	00000000 	nop
80005804:	8f828068 	lw	v0,-32664(gp)
80005808:	38420004 	xori	v0,v0,0x4
8000580c:	af828068 	sw	v0,-32664(gp)
80005810:	24020001 	li	v0,1
80005814:	af828078 	sw	v0,-32648(gp)
80005818:	3c02bfc0 	lui	v0,0xbfc0
8000581c:	34429010 	ori	v0,v0,0x9010
80005820:	240300ed 	li	v1,237
80005824:	ac430000 	sw	v1,0(v0)
80005828:	10000021 	b	800058b0 <ps2_handler+0x2c0>
8000582c:	00000000 	nop
80005830:	8f828068 	lw	v0,-32664(gp)
80005834:	34420008 	ori	v0,v0,0x8
80005838:	af828068 	sw	v0,-32664(gp)
8000583c:	1000001c 	b	800058b0 <ps2_handler+0x2c0>
80005840:	00000000 	nop
80005844:	8f838068 	lw	v1,-32664(gp)
80005848:	2402fff7 	li	v0,-9
8000584c:	00621024 	and	v0,v1,v0
80005850:	af828068 	sw	v0,-32664(gp)
80005854:	10000016 	b	800058b0 <ps2_handler+0x2c0>
80005858:	00000000 	nop
8000585c:	8f828068 	lw	v0,-32664(gp)
80005860:	34420010 	ori	v0,v0,0x10
80005864:	af828068 	sw	v0,-32664(gp)
80005868:	10000011 	b	800058b0 <ps2_handler+0x2c0>
8000586c:	00000000 	nop
80005870:	8f838068 	lw	v1,-32664(gp)
80005874:	2402ffef 	li	v0,-17
80005878:	00621024 	and	v0,v1,v0
8000587c:	af828068 	sw	v0,-32664(gp)
80005880:	1000000b 	b	800058b0 <ps2_handler+0x2c0>
80005884:	00000000 	nop
80005888:	8f828068 	lw	v0,-32664(gp)
8000588c:	34420020 	ori	v0,v0,0x20
80005890:	af828068 	sw	v0,-32664(gp)
80005894:	10000006 	b	800058b0 <ps2_handler+0x2c0>
80005898:	00000000 	nop
8000589c:	8f838068 	lw	v1,-32664(gp)
800058a0:	2402ffdf 	li	v0,-33
800058a4:	00621024 	and	v0,v1,v0
800058a8:	af828068 	sw	v0,-32664(gp)
800058ac:	00000000 	nop
800058b0:	af808074 	sw	zero,-32652(gp)
800058b4:	3c02bfc0 	lui	v0,0xbfc0
800058b8:	34429010 	ori	v0,v0,0x9010
800058bc:	8c420004 	lw	v0,4(v0)
800058c0:	afc20000 	sw	v0,0(s8)
800058c4:	8fc20000 	lw	v0,0(s8)
800058c8:	3042003f 	andi	v0,v0,0x3f
800058cc:	1440ff5b 	bnez	v0,8000563c <ps2_handler+0x4c>
800058d0:	00000000 	nop
800058d4:	03c0e825 	move	sp,s8
800058d8:	8fbe000c 	lw	s8,12(sp)
800058dc:	27bd0010 	addiu	sp,sp,16
800058e0:	03e00008 	jr	ra
800058e4:	00000000 	nop

800058e8 <kernel_getkey>:
800058e8:	27bdffe0 	addiu	sp,sp,-32
800058ec:	afbf001c 	sw	ra,28(sp)
800058f0:	afbe0018 	sw	s8,24(sp)
800058f4:	03a0f025 	move	s8,sp
800058f8:	8f838070 	lw	v1,-32656(gp)
800058fc:	3c028000 	lui	v0,0x8000
80005900:	00031880 	sll	v1,v1,0x2
80005904:	24427df4 	addiu	v0,v0,32244
80005908:	00621021 	addu	v0,v1,v0
8000590c:	8c420000 	lw	v0,0(v0)
80005910:	14400004 	bnez	v0,80005924 <kernel_getkey+0x3c>
80005914:	00000000 	nop
80005918:	24020fff 	li	v0,4095
8000591c:	10000018 	b	80005980 <kernel_getkey+0x98>
80005920:	00000000 	nop
80005924:	8f838070 	lw	v1,-32656(gp)
80005928:	3c028000 	lui	v0,0x8000
8000592c:	00031880 	sll	v1,v1,0x2
80005930:	24427d74 	addiu	v0,v0,32116
80005934:	00621021 	addu	v0,v1,v0
80005938:	8c420000 	lw	v0,0(v0)
8000593c:	afc20010 	sw	v0,16(s8)
80005940:	8f838070 	lw	v1,-32656(gp)
80005944:	3c028000 	lui	v0,0x8000
80005948:	00031880 	sll	v1,v1,0x2
8000594c:	24427df4 	addiu	v0,v0,32244
80005950:	00621021 	addu	v0,v1,v0
80005954:	ac400000 	sw	zero,0(v0)
80005958:	8f828070 	lw	v0,-32656(gp)
8000595c:	24420001 	addiu	v0,v0,1
80005960:	af828070 	sw	v0,-32656(gp)
80005964:	8f838070 	lw	v1,-32656(gp)
80005968:	24020020 	li	v0,32
8000596c:	14620003 	bne	v1,v0,8000597c <kernel_getkey+0x94>
80005970:	00000000 	nop
80005974:	0c001545 	jal	80005514 <init_buffer>
80005978:	00000000 	nop
8000597c:	8fc20010 	lw	v0,16(s8)
80005980:	03c0e825 	move	sp,s8
80005984:	8fbf001c 	lw	ra,28(sp)
80005988:	8fbe0018 	lw	s8,24(sp)
8000598c:	27bd0020 	addiu	sp,sp,32
80005990:	03e00008 	jr	ra
80005994:	00000000 	nop

80005998 <kernel_scantoascii>:
80005998:	27bdfff8 	addiu	sp,sp,-8
8000599c:	afbe0004 	sw	s8,4(sp)
800059a0:	03a0f025 	move	s8,sp
800059a4:	afc40008 	sw	a0,8(s8)
800059a8:	8fc20008 	lw	v0,8(s8)
800059ac:	3043007f 	andi	v1,v0,0x7f
800059b0:	8fc20008 	lw	v0,8(s8)
800059b4:	10620004 	beq	v1,v0,800059c8 <kernel_scantoascii+0x30>
800059b8:	00000000 	nop
800059bc:	2402ffff 	li	v0,-1
800059c0:	10000019 	b	80005a28 <kernel_scantoascii+0x90>
800059c4:	00000000 	nop
800059c8:	8f828068 	lw	v0,-32664(gp)
800059cc:	30420004 	andi	v0,v0,0x4
800059d0:	2c420001 	sltiu	v0,v0,1
800059d4:	304300ff 	andi	v1,v0,0xff
800059d8:	8f828068 	lw	v0,-32664(gp)
800059dc:	30420008 	andi	v0,v0,0x8
800059e0:	2c420001 	sltiu	v0,v0,1
800059e4:	304200ff 	andi	v0,v0,0xff
800059e8:	00621026 	xor	v0,v1,v0
800059ec:	304200ff 	andi	v0,v0,0xff
800059f0:	10400008 	beqz	v0,80005a14 <kernel_scantoascii+0x7c>
800059f4:	00000000 	nop
800059f8:	3c028000 	lui	v0,0x8000
800059fc:	24437bdc 	addiu	v1,v0,31708
80005a00:	8fc20008 	lw	v0,8(s8)
80005a04:	00621021 	addu	v0,v1,v0
80005a08:	80420000 	lb	v0,0(v0)
80005a0c:	10000006 	b	80005a28 <kernel_scantoascii+0x90>
80005a10:	00000000 	nop
80005a14:	3c028000 	lui	v0,0x8000
80005a18:	24437c5c 	addiu	v1,v0,31836
80005a1c:	8fc20008 	lw	v0,8(s8)
80005a20:	00621021 	addu	v0,v1,v0
80005a24:	80420000 	lb	v0,0(v0)
80005a28:	03c0e825 	move	sp,s8
80005a2c:	8fbe0004 	lw	s8,4(sp)
80005a30:	27bd0008 	addiu	sp,sp,8
80005a34:	03e00008 	jr	ra
80005a38:	00000000 	nop

80005a3c <sleep>:
80005a3c:	27bdfff8 	addiu	sp,sp,-8
80005a40:	afbe0004 	sw	s8,4(sp)
80005a44:	03a0f025 	move	s8,sp
80005a48:	afc40008 	sw	a0,8(s8)
80005a4c:	00000000 	nop
80005a50:	8fc20008 	lw	v0,8(s8)
80005a54:	2443ffff 	addiu	v1,v0,-1
80005a58:	afc30008 	sw	v1,8(s8)
80005a5c:	1440fffc 	bnez	v0,80005a50 <sleep+0x14>
80005a60:	00000000 	nop
80005a64:	03c0e825 	move	sp,s8
80005a68:	8fbe0004 	lw	s8,4(sp)
80005a6c:	27bd0008 	addiu	sp,sp,8
80005a70:	03e00008 	jr	ra
80005a74:	00000000 	nop

80005a78 <kernel_getchar>:
80005a78:	27bdffe0 	addiu	sp,sp,-32
80005a7c:	afbf001c 	sw	ra,28(sp)
80005a80:	afbe0018 	sw	s8,24(sp)
80005a84:	03a0f025 	move	s8,sp
80005a88:	0c00163a 	jal	800058e8 <kernel_getkey>
80005a8c:	00000000 	nop
80005a90:	00402025 	move	a0,v0
80005a94:	0c001666 	jal	80005998 <kernel_scantoascii>
80005a98:	00000000 	nop
80005a9c:	afc20010 	sw	v0,16(s8)
80005aa0:	240403e8 	li	a0,1000
80005aa4:	0c00168f 	jal	80005a3c <sleep>
80005aa8:	00000000 	nop
80005aac:	8fc30010 	lw	v1,16(s8)
80005ab0:	2402ffff 	li	v0,-1
80005ab4:	1062fff4 	beq	v1,v0,80005a88 <kernel_getchar+0x10>
80005ab8:	00000000 	nop
80005abc:	8fc20010 	lw	v0,16(s8)
80005ac0:	03c0e825 	move	sp,s8
80005ac4:	8fbf001c 	lw	ra,28(sp)
80005ac8:	8fbe0018 	lw	s8,24(sp)
80005acc:	27bd0020 	addiu	sp,sp,32
80005ad0:	03e00008 	jr	ra
80005ad4:	00000000 	nop

80005ad8 <syscall4>:
80005ad8:	27bdfff8 	addiu	sp,sp,-8
80005adc:	afbe0004 	sw	s8,4(sp)
80005ae0:	03a0f025 	move	s8,sp
80005ae4:	afc40008 	sw	a0,8(s8)
80005ae8:	afc5000c 	sw	a1,12(s8)
80005aec:	afc60010 	sw	a2,16(s8)
80005af0:	afc70014 	sw	a3,20(s8)
80005af4:	8f828020 	lw	v0,-32736(gp)
80005af8:	8fc30008 	lw	v1,8(s8)
80005afc:	ac430000 	sw	v1,0(v0)
80005b00:	03c0e825 	move	sp,s8
80005b04:	8fbe0004 	lw	s8,4(sp)
80005b08:	27bd0008 	addiu	sp,sp,8
80005b0c:	03e00008 	jr	ra
80005b10:	00000000 	nop

80005b14 <init_syscall>:
80005b14:	27bdffe8 	addiu	sp,sp,-24
80005b18:	afbf0014 	sw	ra,20(sp)
80005b1c:	afbe0010 	sw	s8,16(sp)
80005b20:	03a0f025 	move	s8,sp
80005b24:	24040008 	li	a0,8
80005b28:	3c028000 	lui	v0,0x8000
80005b2c:	24455b64 	addiu	a1,v0,23396
80005b30:	0c00042f 	jal	800010bc <register_exception_handler>
80005b34:	00000000 	nop
80005b38:	24040004 	li	a0,4
80005b3c:	3c028000 	lui	v0,0x8000
80005b40:	24455ad8 	addiu	a1,v0,23256
80005b44:	0c001710 	jal	80005c40 <register_syscall>
80005b48:	00000000 	nop
80005b4c:	03c0e825 	move	sp,s8
80005b50:	8fbf0014 	lw	ra,20(sp)
80005b54:	8fbe0010 	lw	s8,16(sp)
80005b58:	27bd0018 	addiu	sp,sp,24
80005b5c:	03e00008 	jr	ra
80005b60:	00000000 	nop

80005b64 <syscall>:
80005b64:	27bdffd0 	addiu	sp,sp,-48
80005b68:	afbf002c 	sw	ra,44(sp)
80005b6c:	afbe0028 	sw	s8,40(sp)
80005b70:	03a0f025 	move	s8,sp
80005b74:	afc40030 	sw	a0,48(s8)
80005b78:	afc50034 	sw	a1,52(s8)
80005b7c:	afc60038 	sw	a2,56(s8)
80005b80:	8fc20038 	lw	v0,56(s8)
80005b84:	8c420010 	lw	v0,16(v0)
80005b88:	afc20010 	sw	v0,16(s8)
80005b8c:	8fc20038 	lw	v0,56(s8)
80005b90:	8c420014 	lw	v0,20(v0)
80005b94:	afc20014 	sw	v0,20(s8)
80005b98:	8fc20038 	lw	v0,56(s8)
80005b9c:	8c420018 	lw	v0,24(v0)
80005ba0:	afc20018 	sw	v0,24(s8)
80005ba4:	8fc20038 	lw	v0,56(s8)
80005ba8:	8c42001c 	lw	v0,28(v0)
80005bac:	afc2001c 	sw	v0,28(s8)
80005bb0:	8fc20038 	lw	v0,56(s8)
80005bb4:	24420008 	addiu	v0,v0,8
80005bb8:	8c420000 	lw	v0,0(v0)
80005bbc:	304200ff 	andi	v0,v0,0xff
80005bc0:	afc20020 	sw	v0,32(s8)
80005bc4:	8fc20038 	lw	v0,56(s8)
80005bc8:	8c420000 	lw	v0,0(v0)
80005bcc:	24430004 	addiu	v1,v0,4
80005bd0:	8fc20038 	lw	v0,56(s8)
80005bd4:	ac430000 	sw	v1,0(v0)
80005bd8:	3c028001 	lui	v0,0x8001
80005bdc:	8fc30020 	lw	v1,32(s8)
80005be0:	00031880 	sll	v1,v1,0x2
80005be4:	24420268 	addiu	v0,v0,616
80005be8:	00621021 	addu	v0,v1,v0
80005bec:	8c420000 	lw	v0,0(v0)
80005bf0:	1040000d 	beqz	v0,80005c28 <syscall+0xc4>
80005bf4:	00000000 	nop
80005bf8:	3c028001 	lui	v0,0x8001
80005bfc:	8fc30020 	lw	v1,32(s8)
80005c00:	00031880 	sll	v1,v1,0x2
80005c04:	24420268 	addiu	v0,v0,616
80005c08:	00621021 	addu	v0,v1,v0
80005c0c:	8c420000 	lw	v0,0(v0)
80005c10:	8fc40010 	lw	a0,16(s8)
80005c14:	8fc50014 	lw	a1,20(s8)
80005c18:	8fc60018 	lw	a2,24(s8)
80005c1c:	8fc7001c 	lw	a3,28(s8)
80005c20:	0040f809 	jalr	v0
80005c24:	00000000 	nop
80005c28:	03c0e825 	move	sp,s8
80005c2c:	8fbf002c 	lw	ra,44(sp)
80005c30:	8fbe0028 	lw	s8,40(sp)
80005c34:	27bd0030 	addiu	sp,sp,48
80005c38:	03e00008 	jr	ra
80005c3c:	00000000 	nop

80005c40 <register_syscall>:
80005c40:	27bdfff8 	addiu	sp,sp,-8
80005c44:	afbe0004 	sw	s8,4(sp)
80005c48:	03a0f025 	move	s8,sp
80005c4c:	afc40008 	sw	a0,8(s8)
80005c50:	afc5000c 	sw	a1,12(s8)
80005c54:	8fc20008 	lw	v0,8(s8)
80005c58:	304200ff 	andi	v0,v0,0xff
80005c5c:	afc20008 	sw	v0,8(s8)
80005c60:	3c028001 	lui	v0,0x8001
80005c64:	8fc30008 	lw	v1,8(s8)
80005c68:	00031880 	sll	v1,v1,0x2
80005c6c:	24420268 	addiu	v0,v0,616
80005c70:	00621021 	addu	v0,v1,v0
80005c74:	8fc3000c 	lw	v1,12(s8)
80005c78:	ac430000 	sw	v1,0(v0)
80005c7c:	03c0e825 	move	sp,s8
80005c80:	8fbe0004 	lw	s8,4(sp)
80005c84:	27bd0008 	addiu	sp,sp,8
80005c88:	03e00008 	jr	ra
80005c8c:	00000000 	nop

80005c90 <get_time_string>:
80005c90:	27bdffe8 	addiu	sp,sp,-24
80005c94:	afbe0014 	sw	s8,20(sp)
80005c98:	03a0f025 	move	s8,sp
80005c9c:	afc40018 	sw	a0,24(s8)
80005ca0:	afc5001c 	sw	a1,28(s8)
80005ca4:	afc60020 	sw	a2,32(s8)
80005ca8:	8fc2001c 	lw	v0,28(s8)
80005cac:	00021a02 	srl	v1,v0,0x8
80005cb0:	8fc20018 	lw	v0,24(s8)
80005cb4:	00021600 	sll	v0,v0,0x18
80005cb8:	00621025 	or	v0,v1,v0
80005cbc:	afc2001c 	sw	v0,28(s8)
80005cc0:	8fc20018 	lw	v0,24(s8)
80005cc4:	00021202 	srl	v0,v0,0x8
80005cc8:	afc20018 	sw	v0,24(s8)
80005ccc:	8fc20018 	lw	v0,24(s8)
80005cd0:	3c0355e6 	lui	v1,0x55e6
80005cd4:	34633b89 	ori	v1,v1,0x3b89
80005cd8:	00430019 	multu	v0,v1
80005cdc:	00001810 	mfhi	v1
80005ce0:	00032442 	srl	a0,v1,0x11
80005ce4:	3c030005 	lui	v1,0x5
80005ce8:	3463f5e1 	ori	v1,v1,0xf5e1
80005cec:	00830018 	mult	a0,v1
80005cf0:	00001812 	mflo	v1
80005cf4:	00431023 	subu	v0,v0,v1
80005cf8:	afc20000 	sw	v0,0(s8)
80005cfc:	8fc30000 	lw	v1,0(s8)
80005d00:	24022af3 	li	v0,10995
80005d04:	70622002 	mul	a0,v1,v0
80005d08:	8fc30000 	lw	v1,0(s8)
80005d0c:	3402b16d 	li	v0,0xb16d
80005d10:	70621802 	mul	v1,v1,v0
80005d14:	3c0255e6 	lui	v0,0x55e6
80005d18:	34423b89 	ori	v0,v0,0x3b89
80005d1c:	00620019 	multu	v1,v0
80005d20:	00001010 	mfhi	v0
80005d24:	00021442 	srl	v0,v0,0x11
80005d28:	3c050005 	lui	a1,0x5
80005d2c:	34a5f5e1 	ori	a1,a1,0xf5e1
80005d30:	00450018 	mult	v0,a1
80005d34:	00001012 	mflo	v0
80005d38:	00621023 	subu	v0,v1,v0
80005d3c:	00821021 	addu	v0,a0,v0
80005d40:	afc20000 	sw	v0,0(s8)
80005d44:	8fc3001c 	lw	v1,28(s8)
80005d48:	3c0255e6 	lui	v0,0x55e6
80005d4c:	34423b89 	ori	v0,v0,0x3b89
80005d50:	00620019 	multu	v1,v0
80005d54:	00001010 	mfhi	v0
80005d58:	00021442 	srl	v0,v0,0x11
80005d5c:	8fc30000 	lw	v1,0(s8)
80005d60:	00621021 	addu	v0,v1,v0
80005d64:	afc20000 	sw	v0,0(s8)
80005d68:	8fc30000 	lw	v1,0(s8)
80005d6c:	3c028888 	lui	v0,0x8888
80005d70:	34428889 	ori	v0,v0,0x8889
80005d74:	00620019 	multu	v1,v0
80005d78:	00001010 	mfhi	v0
80005d7c:	00021142 	srl	v0,v0,0x5
80005d80:	afc20004 	sw	v0,4(s8)
80005d84:	8fc30004 	lw	v1,4(s8)
80005d88:	3c028888 	lui	v0,0x8888
80005d8c:	34428889 	ori	v0,v0,0x8889
80005d90:	00620019 	multu	v1,v0
80005d94:	00001010 	mfhi	v0
80005d98:	00021142 	srl	v0,v0,0x5
80005d9c:	afc20008 	sw	v0,8(s8)
80005da0:	8fc40000 	lw	a0,0(s8)
80005da4:	3c028888 	lui	v0,0x8888
80005da8:	34428889 	ori	v0,v0,0x8889
80005dac:	00820019 	multu	a0,v0
80005db0:	00001010 	mfhi	v0
80005db4:	00021142 	srl	v0,v0,0x5
80005db8:	00401825 	move	v1,v0
80005dbc:	00031080 	sll	v0,v1,0x2
80005dc0:	00401825 	move	v1,v0
80005dc4:	00031100 	sll	v0,v1,0x4
80005dc8:	00431023 	subu	v0,v0,v1
80005dcc:	00821023 	subu	v0,a0,v0
80005dd0:	afc20000 	sw	v0,0(s8)
80005dd4:	8fc40004 	lw	a0,4(s8)
80005dd8:	3c028888 	lui	v0,0x8888
80005ddc:	34428889 	ori	v0,v0,0x8889
80005de0:	00820019 	multu	a0,v0
80005de4:	00001010 	mfhi	v0
80005de8:	00021142 	srl	v0,v0,0x5
80005dec:	00401825 	move	v1,v0
80005df0:	00031080 	sll	v0,v1,0x2
80005df4:	00401825 	move	v1,v0
80005df8:	00031100 	sll	v0,v1,0x4
80005dfc:	00431023 	subu	v0,v0,v1
80005e00:	00821023 	subu	v0,a0,v0
80005e04:	afc20004 	sw	v0,4(s8)
80005e08:	8fc40008 	lw	a0,8(s8)
80005e0c:	3c02aaaa 	lui	v0,0xaaaa
80005e10:	3442aaab 	ori	v0,v0,0xaaab
80005e14:	00820019 	multu	a0,v0
80005e18:	00001010 	mfhi	v0
80005e1c:	00021102 	srl	v0,v0,0x4
80005e20:	00401825 	move	v1,v0
80005e24:	000310c0 	sll	v0,v1,0x3
80005e28:	00401825 	move	v1,v0
80005e2c:	00031080 	sll	v0,v1,0x2
80005e30:	00431023 	subu	v0,v0,v1
80005e34:	00821023 	subu	v0,a0,v0
80005e38:	afc20008 	sw	v0,8(s8)
80005e3c:	8fc30008 	lw	v1,8(s8)
80005e40:	3c02cccc 	lui	v0,0xcccc
80005e44:	3442cccd 	ori	v0,v0,0xcccd
80005e48:	00620019 	multu	v1,v0
80005e4c:	00001010 	mfhi	v0
80005e50:	000210c2 	srl	v0,v0,0x3
80005e54:	304200ff 	andi	v0,v0,0xff
80005e58:	24420030 	addiu	v0,v0,48
80005e5c:	304300ff 	andi	v1,v0,0xff
80005e60:	8fc20020 	lw	v0,32(s8)
80005e64:	a0430000 	sb	v1,0(v0)
80005e68:	8fc20020 	lw	v0,32(s8)
80005e6c:	24440001 	addiu	a0,v0,1
80005e70:	8fc30008 	lw	v1,8(s8)
80005e74:	3c02cccc 	lui	v0,0xcccc
80005e78:	3442cccd 	ori	v0,v0,0xcccd
80005e7c:	00620019 	multu	v1,v0
80005e80:	00001010 	mfhi	v0
80005e84:	000210c2 	srl	v0,v0,0x3
80005e88:	00021040 	sll	v0,v0,0x1
80005e8c:	00022880 	sll	a1,v0,0x2
80005e90:	00451021 	addu	v0,v0,a1
80005e94:	00621023 	subu	v0,v1,v0
80005e98:	304200ff 	andi	v0,v0,0xff
80005e9c:	24420030 	addiu	v0,v0,48
80005ea0:	304200ff 	andi	v0,v0,0xff
80005ea4:	a0820000 	sb	v0,0(a0)
80005ea8:	8fc20020 	lw	v0,32(s8)
80005eac:	24420002 	addiu	v0,v0,2
80005eb0:	2403003a 	li	v1,58
80005eb4:	a0430000 	sb	v1,0(v0)
80005eb8:	8fc20020 	lw	v0,32(s8)
80005ebc:	24420003 	addiu	v0,v0,3
80005ec0:	8fc40004 	lw	a0,4(s8)
80005ec4:	3c03cccc 	lui	v1,0xcccc
80005ec8:	3463cccd 	ori	v1,v1,0xcccd
80005ecc:	00830019 	multu	a0,v1
80005ed0:	00001810 	mfhi	v1
80005ed4:	000318c2 	srl	v1,v1,0x3
80005ed8:	306300ff 	andi	v1,v1,0xff
80005edc:	24630030 	addiu	v1,v1,48
80005ee0:	306300ff 	andi	v1,v1,0xff
80005ee4:	a0430000 	sb	v1,0(v0)
80005ee8:	8fc20020 	lw	v0,32(s8)
80005eec:	24440004 	addiu	a0,v0,4
80005ef0:	8fc30004 	lw	v1,4(s8)
80005ef4:	3c02cccc 	lui	v0,0xcccc
80005ef8:	3442cccd 	ori	v0,v0,0xcccd
80005efc:	00620019 	multu	v1,v0
80005f00:	00001010 	mfhi	v0
80005f04:	000210c2 	srl	v0,v0,0x3
80005f08:	00021040 	sll	v0,v0,0x1
80005f0c:	00022880 	sll	a1,v0,0x2
80005f10:	00451021 	addu	v0,v0,a1
80005f14:	00621023 	subu	v0,v1,v0
80005f18:	304200ff 	andi	v0,v0,0xff
80005f1c:	24420030 	addiu	v0,v0,48
80005f20:	304200ff 	andi	v0,v0,0xff
80005f24:	a0820000 	sb	v0,0(a0)
80005f28:	8fc20020 	lw	v0,32(s8)
80005f2c:	24420005 	addiu	v0,v0,5
80005f30:	2403003a 	li	v1,58
80005f34:	a0430000 	sb	v1,0(v0)
80005f38:	8fc20020 	lw	v0,32(s8)
80005f3c:	24420006 	addiu	v0,v0,6
80005f40:	8fc40000 	lw	a0,0(s8)
80005f44:	3c03cccc 	lui	v1,0xcccc
80005f48:	3463cccd 	ori	v1,v1,0xcccd
80005f4c:	00830019 	multu	a0,v1
80005f50:	00001810 	mfhi	v1
80005f54:	000318c2 	srl	v1,v1,0x3
80005f58:	306300ff 	andi	v1,v1,0xff
80005f5c:	24630030 	addiu	v1,v1,48
80005f60:	306300ff 	andi	v1,v1,0xff
80005f64:	a0430000 	sb	v1,0(v0)
80005f68:	8fc20020 	lw	v0,32(s8)
80005f6c:	24440007 	addiu	a0,v0,7
80005f70:	8fc30000 	lw	v1,0(s8)
80005f74:	3c02cccc 	lui	v0,0xcccc
80005f78:	3442cccd 	ori	v0,v0,0xcccd
80005f7c:	00620019 	multu	v1,v0
80005f80:	00001010 	mfhi	v0
80005f84:	000210c2 	srl	v0,v0,0x3
80005f88:	00021040 	sll	v0,v0,0x1
80005f8c:	00022880 	sll	a1,v0,0x2
80005f90:	00451021 	addu	v0,v0,a1
80005f94:	00621023 	subu	v0,v1,v0
80005f98:	304200ff 	andi	v0,v0,0xff
80005f9c:	24420030 	addiu	v0,v0,48
80005fa0:	304200ff 	andi	v0,v0,0xff
80005fa4:	a0820000 	sb	v0,0(a0)
80005fa8:	03c0e825 	move	sp,s8
80005fac:	8fbe0014 	lw	s8,20(sp)
80005fb0:	27bd0018 	addiu	sp,sp,24
80005fb4:	03e00008 	jr	ra
80005fb8:	00000000 	nop

80005fbc <time_handler>:
80005fbc:	27bdffc8 	addiu	sp,sp,-56
80005fc0:	afbf0034 	sw	ra,52(sp)
80005fc4:	afbe0030 	sw	s8,48(sp)
80005fc8:	03a0f025 	move	s8,sp
80005fcc:	afc40038 	sw	a0,56(s8)
80005fd0:	afc5003c 	sw	a1,60(s8)
80005fd4:	afc60040 	sw	a2,64(s8)
80005fd8:	3c028000 	lui	v0,0x8000
80005fdc:	2442794c 	addiu	v0,v0,31052
80005fe0:	afc2001c 	sw	v0,28(s8)
80005fe4:	40034806 	mfc0	v1,$9,6
80005fe8:	40024807 	mfc0	v0,$9,7
80005fec:	afc30020 	sw	v1,32(s8)
80005ff0:	afc20024 	sw	v0,36(s8)
80005ff4:	27c20028 	addiu	v0,s8,40
80005ff8:	8fc40024 	lw	a0,36(s8)
80005ffc:	8fc50020 	lw	a1,32(s8)
80006000:	00403025 	move	a2,v0
80006004:	0c001724 	jal	80005c90 <get_time_string>
80006008:	00000000 	nop
8000600c:	afc00018 	sw	zero,24(s8)
80006010:	10000012 	b	8000605c <time_handler+0xa0>
80006014:	00000000 	nop
80006018:	8fc20018 	lw	v0,24(s8)
8000601c:	8fc3001c 	lw	v1,28(s8)
80006020:	00621021 	addu	v0,v1,v0
80006024:	90420000 	lbu	v0,0(v0)
80006028:	00401825 	move	v1,v0
8000602c:	8fc20018 	lw	v0,24(s8)
80006030:	2442003d 	addiu	v0,v0,61
80006034:	afa20010 	sw	v0,16(sp)
80006038:	00602025 	move	a0,v1
8000603c:	24050fff 	li	a1,4095
80006040:	00003025 	move	a2,zero
80006044:	2407001d 	li	a3,29
80006048:	0c00130e 	jal	80004c38 <kernel_putchar_at>
8000604c:	00000000 	nop
80006050:	8fc20018 	lw	v0,24(s8)
80006054:	24420001 	addiu	v0,v0,1
80006058:	afc20018 	sw	v0,24(s8)
8000605c:	8fc20018 	lw	v0,24(s8)
80006060:	2842000b 	slti	v0,v0,11
80006064:	1440ffec 	bnez	v0,80006018 <time_handler+0x5c>
80006068:	00000000 	nop
8000606c:	afc00018 	sw	zero,24(s8)
80006070:	10000012 	b	800060bc <time_handler+0x100>
80006074:	00000000 	nop
80006078:	8fc20018 	lw	v0,24(s8)
8000607c:	27c30018 	addiu	v1,s8,24
80006080:	00621021 	addu	v0,v1,v0
80006084:	90420010 	lbu	v0,16(v0)
80006088:	00401825 	move	v1,v0
8000608c:	8fc20018 	lw	v0,24(s8)
80006090:	24420048 	addiu	v0,v0,72
80006094:	afa20010 	sw	v0,16(sp)
80006098:	00602025 	move	a0,v1
8000609c:	24050fff 	li	a1,4095
800060a0:	00003025 	move	a2,zero
800060a4:	2407001d 	li	a3,29
800060a8:	0c00130e 	jal	80004c38 <kernel_putchar_at>
800060ac:	00000000 	nop
800060b0:	8fc20018 	lw	v0,24(s8)
800060b4:	24420001 	addiu	v0,v0,1
800060b8:	afc20018 	sw	v0,24(s8)
800060bc:	8fc20018 	lw	v0,24(s8)
800060c0:	28420008 	slti	v0,v0,8
800060c4:	1440ffec 	bnez	v0,80006078 <time_handler+0xbc>
800060c8:	00000000 	nop
800060cc:	40804800 	mtc0	zero,c0_count
800060d0:	03c0e825 	move	sp,s8
800060d4:	8fbf0034 	lw	ra,52(sp)
800060d8:	8fbe0030 	lw	s8,48(sp)
800060dc:	27bd0038 	addiu	sp,sp,56
800060e0:	03e00008 	jr	ra
800060e4:	00000000 	nop

800060e8 <init_time>:
800060e8:	27bdffe8 	addiu	sp,sp,-24
800060ec:	afbf0014 	sw	ra,20(sp)
800060f0:	afbe0010 	sw	s8,16(sp)
800060f4:	03a0f025 	move	s8,sp
800060f8:	24040007 	li	a0,7
800060fc:	3c028000 	lui	v0,0x8000
80006100:	24455fbc 	addiu	a1,v0,24508
80006104:	0c0004ae 	jal	800012b8 <register_interrupt_handler>
80006108:	00000000 	nop
8000610c:	3c0205f5 	lui	v0,0x5f5
80006110:	3442e100 	ori	v0,v0,0xe100
80006114:	40825800 	mtc0	v0,c0_compare
80006118:	40804800 	mtc0	zero,c0_count
8000611c:	03c0e825 	move	sp,s8
80006120:	8fbf0014 	lw	ra,20(sp)
80006124:	8fbe0010 	lw	s8,16(sp)
80006128:	27bd0018 	addiu	sp,sp,24
8000612c:	03e00008 	jr	ra
80006130:	00000000 	nop

80006134 <get_time>:
80006134:	27bdffe0 	addiu	sp,sp,-32
80006138:	afbf001c 	sw	ra,28(sp)
8000613c:	afbe0018 	sw	s8,24(sp)
80006140:	03a0f025 	move	s8,sp
80006144:	afc40020 	sw	a0,32(s8)
80006148:	afc50024 	sw	a1,36(s8)
8000614c:	8fc20024 	lw	v0,36(s8)
80006150:	28420009 	slti	v0,v0,9
80006154:	38420001 	xori	v0,v0,0x1
80006158:	304200ff 	andi	v0,v0,0xff
8000615c:	00402025 	move	a0,v0
80006160:	3c028000 	lui	v0,0x8000
80006164:	24457958 	addiu	a1,v0,31064
80006168:	0c0019ee 	jal	800067b8 <assert>
8000616c:	00000000 	nop
80006170:	40034806 	mfc0	v1,$9,6
80006174:	40024807 	mfc0	v0,$9,7
80006178:	afc30010 	sw	v1,16(s8)
8000617c:	afc20014 	sw	v0,20(s8)
80006180:	8fc40014 	lw	a0,20(s8)
80006184:	8fc50010 	lw	a1,16(s8)
80006188:	8fc60020 	lw	a2,32(s8)
8000618c:	0c001724 	jal	80005c90 <get_time_string>
80006190:	00000000 	nop
80006194:	8fc20020 	lw	v0,32(s8)
80006198:	24420008 	addiu	v0,v0,8
8000619c:	a0400000 	sb	zero,0(v0)
800061a0:	03c0e825 	move	sp,s8
800061a4:	8fbf001c 	lw	ra,28(sp)
800061a8:	8fbe0018 	lw	s8,24(sp)
800061ac:	27bd0020 	addiu	sp,sp,32
800061b0:	03e00008 	jr	ra
800061b4:	00000000 	nop

800061b8 <kernel_memcpy>:
800061b8:	27bdfff0 	addiu	sp,sp,-16
800061bc:	afbe000c 	sw	s8,12(sp)
800061c0:	03a0f025 	move	s8,sp
800061c4:	afc40010 	sw	a0,16(s8)
800061c8:	afc50014 	sw	a1,20(s8)
800061cc:	afc60018 	sw	a2,24(s8)
800061d0:	8fc20010 	lw	v0,16(s8)
800061d4:	afc20000 	sw	v0,0(s8)
800061d8:	8fc20014 	lw	v0,20(s8)
800061dc:	afc20004 	sw	v0,4(s8)
800061e0:	1000000b 	b	80006210 <kernel_memcpy+0x58>
800061e4:	00000000 	nop
800061e8:	8fc20004 	lw	v0,4(s8)
800061ec:	90430000 	lbu	v1,0(v0)
800061f0:	8fc20000 	lw	v0,0(s8)
800061f4:	a0430000 	sb	v1,0(v0)
800061f8:	8fc20000 	lw	v0,0(s8)
800061fc:	24420001 	addiu	v0,v0,1
80006200:	afc20000 	sw	v0,0(s8)
80006204:	8fc20004 	lw	v0,4(s8)
80006208:	24420001 	addiu	v0,v0,1
8000620c:	afc20004 	sw	v0,4(s8)
80006210:	8fc20018 	lw	v0,24(s8)
80006214:	2443ffff 	addiu	v1,v0,-1
80006218:	afc30018 	sw	v1,24(s8)
8000621c:	1440fff2 	bnez	v0,800061e8 <kernel_memcpy+0x30>
80006220:	00000000 	nop
80006224:	8fc20010 	lw	v0,16(s8)
80006228:	03c0e825 	move	sp,s8
8000622c:	8fbe000c 	lw	s8,12(sp)
80006230:	27bd0010 	addiu	sp,sp,16
80006234:	03e00008 	jr	ra
80006238:	00000000 	nop

8000623c <kernel_memset>:
8000623c:	0005282b 	sltu	a1,zero,a1
80006240:	00052823 	negu	a1,a1
80006244:	00801025 	move	v0,a0
80006248:	10c00007 	beqz	a2,80006268 <kernel_memset+0x2c>
8000624c:	30a500ff 	andi	a1,a1,0xff
80006250:	00863021 	addu	a2,a0,a2
80006254:	00801825 	move	v1,a0
80006258:	a0650000 	sb	a1,0(v1)
8000625c:	24630001 	addiu	v1,v1,1
80006260:	1466fffd 	bne	v1,a2,80006258 <kernel_memset+0x1c>
80006264:	00000000 	nop
80006268:	03e00008 	jr	ra
8000626c:	00000000 	nop

80006270 <kernel_memset_word>:
80006270:	27bdfff8 	addiu	sp,sp,-8
80006274:	afbe0004 	sw	s8,4(sp)
80006278:	03a0f025 	move	s8,sp
8000627c:	afc40008 	sw	a0,8(s8)
80006280:	afc5000c 	sw	a1,12(s8)
80006284:	afc60010 	sw	a2,16(s8)
80006288:	10000006 	b	800062a4 <kernel_memset_word+0x34>
8000628c:	00000000 	nop
80006290:	8fc20008 	lw	v0,8(s8)
80006294:	24430004 	addiu	v1,v0,4
80006298:	afc30008 	sw	v1,8(s8)
8000629c:	8fc3000c 	lw	v1,12(s8)
800062a0:	ac430000 	sw	v1,0(v0)
800062a4:	8fc20010 	lw	v0,16(s8)
800062a8:	2443ffff 	addiu	v1,v0,-1
800062ac:	afc30010 	sw	v1,16(s8)
800062b0:	1440fff7 	bnez	v0,80006290 <kernel_memset_word+0x20>
800062b4:	00000000 	nop
800062b8:	8fc20008 	lw	v0,8(s8)
800062bc:	03c0e825 	move	sp,s8
800062c0:	8fbe0004 	lw	s8,4(sp)
800062c4:	27bd0008 	addiu	sp,sp,8
800062c8:	03e00008 	jr	ra
800062cc:	00000000 	nop

800062d0 <kernel_strcmp>:
800062d0:	27bdfff8 	addiu	sp,sp,-8
800062d4:	afbe0004 	sw	s8,4(sp)
800062d8:	03a0f025 	move	s8,sp
800062dc:	afc40008 	sw	a0,8(s8)
800062e0:	afc5000c 	sw	a1,12(s8)
800062e4:	10000007 	b	80006304 <kernel_strcmp+0x34>
800062e8:	00000000 	nop
800062ec:	8fc20008 	lw	v0,8(s8)
800062f0:	24420001 	addiu	v0,v0,1
800062f4:	afc20008 	sw	v0,8(s8)
800062f8:	8fc2000c 	lw	v0,12(s8)
800062fc:	24420001 	addiu	v0,v0,1
80006300:	afc2000c 	sw	v0,12(s8)
80006304:	8fc20008 	lw	v0,8(s8)
80006308:	90430000 	lbu	v1,0(v0)
8000630c:	8fc2000c 	lw	v0,12(s8)
80006310:	90420000 	lbu	v0,0(v0)
80006314:	14620005 	bne	v1,v0,8000632c <kernel_strcmp+0x5c>
80006318:	00000000 	nop
8000631c:	8fc20008 	lw	v0,8(s8)
80006320:	90420000 	lbu	v0,0(v0)
80006324:	1440fff1 	bnez	v0,800062ec <kernel_strcmp+0x1c>
80006328:	00000000 	nop
8000632c:	8fc20008 	lw	v0,8(s8)
80006330:	90420000 	lbu	v0,0(v0)
80006334:	00401825 	move	v1,v0
80006338:	8fc2000c 	lw	v0,12(s8)
8000633c:	90420000 	lbu	v0,0(v0)
80006340:	00621023 	subu	v0,v1,v0
80006344:	03c0e825 	move	sp,s8
80006348:	8fbe0004 	lw	s8,4(sp)
8000634c:	27bd0008 	addiu	sp,sp,8
80006350:	03e00008 	jr	ra
80006354:	00000000 	nop

80006358 <kernel_strcpy>:
80006358:	27bdfff8 	addiu	sp,sp,-8
8000635c:	afbe0004 	sw	s8,4(sp)
80006360:	03a0f025 	move	s8,sp
80006364:	afc40008 	sw	a0,8(s8)
80006368:	afc5000c 	sw	a1,12(s8)
8000636c:	00000000 	nop
80006370:	8fc20008 	lw	v0,8(s8)
80006374:	24430001 	addiu	v1,v0,1
80006378:	afc30008 	sw	v1,8(s8)
8000637c:	8fc3000c 	lw	v1,12(s8)
80006380:	24640001 	addiu	a0,v1,1
80006384:	afc4000c 	sw	a0,12(s8)
80006388:	90630000 	lbu	v1,0(v1)
8000638c:	a0430000 	sb	v1,0(v0)
80006390:	90420000 	lbu	v0,0(v0)
80006394:	1440fff6 	bnez	v0,80006370 <kernel_strcpy+0x18>
80006398:	00000000 	nop
8000639c:	8fc20008 	lw	v0,8(s8)
800063a0:	03c0e825 	move	sp,s8
800063a4:	8fbe0004 	lw	s8,4(sp)
800063a8:	27bd0008 	addiu	sp,sp,8
800063ac:	03e00008 	jr	ra
800063b0:	00000000 	nop

800063b4 <pow>:
800063b4:	27bdfff0 	addiu	sp,sp,-16
800063b8:	afbe000c 	sw	s8,12(sp)
800063bc:	03a0f025 	move	s8,sp
800063c0:	afc40010 	sw	a0,16(s8)
800063c4:	afc50014 	sw	a1,20(s8)
800063c8:	24020001 	li	v0,1
800063cc:	afc20000 	sw	v0,0(s8)
800063d0:	8fc20014 	lw	v0,20(s8)
800063d4:	04410004 	bgez	v0,800063e8 <pow+0x34>
800063d8:	00000000 	nop
800063dc:	2402ffff 	li	v0,-1
800063e0:	1000000e 	b	8000641c <pow+0x68>
800063e4:	00000000 	nop
800063e8:	10000006 	b	80006404 <pow+0x50>
800063ec:	00000000 	nop
800063f0:	8fc30000 	lw	v1,0(s8)
800063f4:	8fc20010 	lw	v0,16(s8)
800063f8:	00620018 	mult	v1,v0
800063fc:	00001012 	mflo	v0
80006400:	afc20000 	sw	v0,0(s8)
80006404:	8fc20014 	lw	v0,20(s8)
80006408:	2443ffff 	addiu	v1,v0,-1
8000640c:	afc30014 	sw	v1,20(s8)
80006410:	1440fff7 	bnez	v0,800063f0 <pow+0x3c>
80006414:	00000000 	nop
80006418:	8fc20000 	lw	v0,0(s8)
8000641c:	03c0e825 	move	sp,s8
80006420:	8fbe000c 	lw	s8,12(sp)
80006424:	27bd0010 	addiu	sp,sp,16
80006428:	03e00008 	jr	ra
8000642c:	00000000 	nop

80006430 <kernel_cache>:
80006430:	27bdfff8 	addiu	sp,sp,-8
80006434:	afbe0004 	sw	s8,4(sp)
80006438:	03a0f025 	move	s8,sp
8000643c:	afc40008 	sw	a0,8(s8)
80006440:	8fc30008 	lw	v1,8(s8)
80006444:	3c028000 	lui	v0,0x8000
80006448:	00621025 	or	v0,v1,v0
8000644c:	afc20008 	sw	v0,8(s8)
80006450:	240800e9 	li	t0,233
80006454:	40884000 	mtc0	t0,c0_badvaddr
80006458:	00404025 	move	t0,v0
8000645c:	bd000000 	cache	0x0,0(t0)
80006460:	00000000 	nop
80006464:	bd010000 	cache	0x1,0(t0)
80006468:	afc20008 	sw	v0,8(s8)
8000646c:	03c0e825 	move	sp,s8
80006470:	8fbe0004 	lw	s8,4(sp)
80006474:	27bd0008 	addiu	sp,sp,8
80006478:	03e00008 	jr	ra
8000647c:	00000000 	nop

80006480 <kernel_serial_puts>:
80006480:	27bdfff8 	addiu	sp,sp,-8
80006484:	afbe0004 	sw	s8,4(sp)
80006488:	03a0f025 	move	s8,sp
8000648c:	afc40008 	sw	a0,8(s8)
80006490:	10000008 	b	800064b4 <kernel_serial_puts+0x34>
80006494:	00000000 	nop
80006498:	3c02bfc0 	lui	v0,0xbfc0
8000649c:	34439018 	ori	v1,v0,0x9018
800064a0:	8fc20008 	lw	v0,8(s8)
800064a4:	24440001 	addiu	a0,v0,1
800064a8:	afc40008 	sw	a0,8(s8)
800064ac:	90420000 	lbu	v0,0(v0)
800064b0:	ac620000 	sw	v0,0(v1)
800064b4:	8fc20008 	lw	v0,8(s8)
800064b8:	90420000 	lbu	v0,0(v0)
800064bc:	1440fff6 	bnez	v0,80006498 <kernel_serial_puts+0x18>
800064c0:	00000000 	nop
800064c4:	03c0e825 	move	sp,s8
800064c8:	8fbe0004 	lw	s8,4(sp)
800064cc:	27bd0008 	addiu	sp,sp,8
800064d0:	03e00008 	jr	ra
800064d4:	00000000 	nop

800064d8 <kernel_serial_putc>:
800064d8:	27bdfff8 	addiu	sp,sp,-8
800064dc:	afbe0004 	sw	s8,4(sp)
800064e0:	03a0f025 	move	s8,sp
800064e4:	00801025 	move	v0,a0
800064e8:	a3c20008 	sb	v0,8(s8)
800064ec:	3c02bfc0 	lui	v0,0xbfc0
800064f0:	34429018 	ori	v0,v0,0x9018
800064f4:	93c30008 	lbu	v1,8(s8)
800064f8:	ac430000 	sw	v1,0(v0)
800064fc:	03c0e825 	move	sp,s8
80006500:	8fbe0004 	lw	s8,4(sp)
80006504:	27bd0008 	addiu	sp,sp,8
80006508:	03e00008 	jr	ra
8000650c:	00000000 	nop

80006510 <is_bound>:
80006510:	27bdfff8 	addiu	sp,sp,-8
80006514:	afbe0004 	sw	s8,4(sp)
80006518:	03a0f025 	move	s8,sp
8000651c:	afc40008 	sw	a0,8(s8)
80006520:	afc5000c 	sw	a1,12(s8)
80006524:	8fc2000c 	lw	v0,12(s8)
80006528:	2443ffff 	addiu	v1,v0,-1
8000652c:	8fc20008 	lw	v0,8(s8)
80006530:	00621024 	and	v0,v1,v0
80006534:	2c420001 	sltiu	v0,v0,1
80006538:	304200ff 	andi	v0,v0,0xff
8000653c:	03c0e825 	move	sp,s8
80006540:	8fbe0004 	lw	s8,4(sp)
80006544:	27bd0008 	addiu	sp,sp,8
80006548:	03e00008 	jr	ra
8000654c:	00000000 	nop

80006550 <log_level_adv>:
80006550:	27bdfff8 	addiu	sp,sp,-8
80006554:	afbe0004 	sw	s8,4(sp)
80006558:	03a0f025 	move	s8,sp
8000655c:	8f828080 	lw	v0,-32640(gp)
80006560:	28420004 	slti	v0,v0,4
80006564:	10400004 	beqz	v0,80006578 <log_level_adv+0x28>
80006568:	00000000 	nop
8000656c:	8f828080 	lw	v0,-32640(gp)
80006570:	24420001 	addiu	v0,v0,1
80006574:	af828080 	sw	v0,-32640(gp)
80006578:	03c0e825 	move	sp,s8
8000657c:	8fbe0004 	lw	s8,4(sp)
80006580:	27bd0008 	addiu	sp,sp,8
80006584:	03e00008 	jr	ra
80006588:	00000000 	nop

8000658c <log_level_rec>:
8000658c:	27bdfff8 	addiu	sp,sp,-8
80006590:	afbe0004 	sw	s8,4(sp)
80006594:	03a0f025 	move	s8,sp
80006598:	8f828080 	lw	v0,-32640(gp)
8000659c:	18400004 	blez	v0,800065b0 <log_level_rec+0x24>
800065a0:	00000000 	nop
800065a4:	8f828080 	lw	v0,-32640(gp)
800065a8:	2442ffff 	addiu	v0,v0,-1
800065ac:	af828080 	sw	v0,-32640(gp)
800065b0:	03c0e825 	move	sp,s8
800065b4:	8fbe0004 	lw	s8,4(sp)
800065b8:	27bd0008 	addiu	sp,sp,8
800065bc:	03e00008 	jr	ra
800065c0:	00000000 	nop

800065c4 <log>:
800065c4:	27bdffd8 	addiu	sp,sp,-40
800065c8:	afbf0024 	sw	ra,36(sp)
800065cc:	afbe0020 	sw	s8,32(sp)
800065d0:	03a0f025 	move	s8,sp
800065d4:	afc40028 	sw	a0,40(s8)
800065d8:	afc60030 	sw	a2,48(s8)
800065dc:	afc70034 	sw	a3,52(s8)
800065e0:	afc5002c 	sw	a1,44(s8)
800065e4:	8fc20028 	lw	v0,40(s8)
800065e8:	2c420005 	sltiu	v0,v0,5
800065ec:	10400031 	beqz	v0,800066b4 <log+0xf0>
800065f0:	00000000 	nop
800065f4:	8fc20028 	lw	v0,40(s8)
800065f8:	00021880 	sll	v1,v0,0x2
800065fc:	3c028000 	lui	v0,0x8000
80006600:	244279e4 	addiu	v0,v0,31204
80006604:	00621021 	addu	v0,v1,v0
80006608:	8c420000 	lw	v0,0(v0)
8000660c:	00400008 	jr	v0
80006610:	00000000 	nop
80006614:	3c028000 	lui	v0,0x8000
80006618:	24447984 	addiu	a0,v0,31108
8000661c:	240500f0 	li	a1,240
80006620:	00003025 	move	a2,zero
80006624:	0c0013b1 	jal	80004ec4 <kernel_puts>
80006628:	00000000 	nop
8000662c:	10000027 	b	800066cc <log+0x108>
80006630:	00000000 	nop
80006634:	3c028000 	lui	v0,0x8000
80006638:	24447990 	addiu	a0,v0,31120
8000663c:	2405000f 	li	a1,15
80006640:	00003025 	move	a2,zero
80006644:	0c0013b1 	jal	80004ec4 <kernel_puts>
80006648:	00000000 	nop
8000664c:	1000001f 	b	800066cc <log+0x108>
80006650:	00000000 	nop
80006654:	3c028000 	lui	v0,0x8000
80006658:	24447998 	addiu	a0,v0,31128
8000665c:	24050f00 	li	a1,3840
80006660:	00003025 	move	a2,zero
80006664:	0c0013b1 	jal	80004ec4 <kernel_puts>
80006668:	00000000 	nop
8000666c:	10000017 	b	800066cc <log+0x108>
80006670:	00000000 	nop
80006674:	3c028000 	lui	v0,0x8000
80006678:	244479a4 	addiu	a0,v0,31140
8000667c:	24050f00 	li	a1,3840
80006680:	00003025 	move	a2,zero
80006684:	0c0013b1 	jal	80004ec4 <kernel_puts>
80006688:	00000000 	nop
8000668c:	1000000f 	b	800066cc <log+0x108>
80006690:	00000000 	nop
80006694:	3c028000 	lui	v0,0x8000
80006698:	244479b0 	addiu	a0,v0,31152
8000669c:	24050fff 	li	a1,4095
800066a0:	00003025 	move	a2,zero
800066a4:	0c0013b1 	jal	80004ec4 <kernel_puts>
800066a8:	00000000 	nop
800066ac:	10000007 	b	800066cc <log+0x108>
800066b0:	00000000 	nop
800066b4:	00002025 	move	a0,zero
800066b8:	3c028000 	lui	v0,0x8000
800066bc:	244579b8 	addiu	a1,v0,31160
800066c0:	0c0019ee 	jal	800067b8 <assert>
800066c4:	00000000 	nop
800066c8:	00000000 	nop
800066cc:	27c20014 	addiu	v0,s8,20
800066d0:	00402025 	move	a0,v0
800066d4:	24050009 	li	a1,9
800066d8:	0c00184d 	jal	80006134 <get_time>
800066dc:	00000000 	nop
800066e0:	27c30014 	addiu	v1,s8,20
800066e4:	3c028000 	lui	v0,0x8000
800066e8:	244479d8 	addiu	a0,v0,31192
800066ec:	00602825 	move	a1,v1
800066f0:	0c00152c 	jal	800054b0 <kernel_printf>
800066f4:	00000000 	nop
800066f8:	27c2002c 	addiu	v0,s8,44
800066fc:	24420004 	addiu	v0,v0,4
80006700:	afc20010 	sw	v0,16(s8)
80006704:	8fc2002c 	lw	v0,44(s8)
80006708:	00402025 	move	a0,v0
8000670c:	8fc50010 	lw	a1,16(s8)
80006710:	0c001491 	jal	80005244 <kernel_vprintf>
80006714:	00000000 	nop
80006718:	afc00010 	sw	zero,16(s8)
8000671c:	3c028000 	lui	v0,0x8000
80006720:	244479e0 	addiu	a0,v0,31200
80006724:	0c00152c 	jal	800054b0 <kernel_printf>
80006728:	00000000 	nop
8000672c:	03c0e825 	move	sp,s8
80006730:	8fbf0024 	lw	ra,36(sp)
80006734:	8fbe0020 	lw	s8,32(sp)
80006738:	27bd0028 	addiu	sp,sp,40
8000673c:	03e00008 	jr	ra
80006740:	00000000 	nop

80006744 <step>:
80006744:	27bdffe8 	addiu	sp,sp,-24
80006748:	afbf0014 	sw	ra,20(sp)
8000674c:	afbe0010 	sw	s8,16(sp)
80006750:	03a0f025 	move	s8,sp
80006754:	8f82807c 	lw	v0,-32644(gp)
80006758:	24420001 	addiu	v0,v0,1
8000675c:	af82807c 	sw	v0,-32644(gp)
80006760:	8f83807c 	lw	v1,-32644(gp)
80006764:	24040004 	li	a0,4
80006768:	3c028000 	lui	v0,0x8000
8000676c:	244579f8 	addiu	a1,v0,31224
80006770:	00603025 	move	a2,v1
80006774:	0c001971 	jal	800065c4 <log>
80006778:	00000000 	nop
8000677c:	03c0e825 	move	sp,s8
80006780:	8fbf0014 	lw	ra,20(sp)
80006784:	8fbe0010 	lw	s8,16(sp)
80006788:	27bd0018 	addiu	sp,sp,24
8000678c:	03e00008 	jr	ra
80006790:	00000000 	nop

80006794 <step_reset>:
80006794:	27bdfff8 	addiu	sp,sp,-8
80006798:	afbe0004 	sw	s8,4(sp)
8000679c:	03a0f025 	move	s8,sp
800067a0:	af80807c 	sw	zero,-32644(gp)
800067a4:	03c0e825 	move	sp,s8
800067a8:	8fbe0004 	lw	s8,4(sp)
800067ac:	27bd0008 	addiu	sp,sp,8
800067b0:	03e00008 	jr	ra
800067b4:	00000000 	nop

800067b8 <assert>:
800067b8:	27bdffe8 	addiu	sp,sp,-24
800067bc:	afbf0014 	sw	ra,20(sp)
800067c0:	afbe0010 	sw	s8,16(sp)
800067c4:	03a0f025 	move	s8,sp
800067c8:	afc40018 	sw	a0,24(s8)
800067cc:	afc5001c 	sw	a1,28(s8)
800067d0:	8fc30018 	lw	v1,24(s8)
800067d4:	24020001 	li	v0,1
800067d8:	10620008 	beq	v1,v0,800067fc <assert+0x44>
800067dc:	00000000 	nop
800067e0:	3c028000 	lui	v0,0x8000
800067e4:	244479fc 	addiu	a0,v0,31228
800067e8:	8fc5001c 	lw	a1,28(s8)
800067ec:	0c00152c 	jal	800054b0 <kernel_printf>
800067f0:	00000000 	nop
800067f4:	1000ffff 	b	800067f4 <assert+0x3c>
800067f8:	00000000 	nop
800067fc:	03c0e825 	move	sp,s8
80006800:	8fbf0014 	lw	ra,20(sp)
80006804:	8fbe0010 	lw	s8,16(sp)
80006808:	27bd0018 	addiu	sp,sp,24
8000680c:	03e00008 	jr	ra
80006810:	00000000 	nop

80006814 <test_syscall4>:
80006814:	27bdfff8 	addiu	sp,sp,-8
80006818:	afbe0004 	sw	s8,4(sp)
8000681c:	03a0f025 	move	s8,sp
80006820:	240400ff 	li	a0,255
80006824:	24020004 	li	v0,4
80006828:	0000000c 	syscall
8000682c:	00000000 	nop
80006830:	03c0e825 	move	sp,s8
80006834:	8fbe0004 	lw	s8,4(sp)
80006838:	27bd0008 	addiu	sp,sp,8
8000683c:	03e00008 	jr	ra
80006840:	00000000 	nop

80006844 <ps>:
80006844:	27bdffd8 	addiu	sp,sp,-40
80006848:	afbf0024 	sw	ra,36(sp)
8000684c:	afbe0020 	sw	s8,32(sp)
80006850:	03a0f025 	move	s8,sp
80006854:	3c028000 	lui	v0,0x8000
80006858:	24447a10 	addiu	a0,v0,31248
8000685c:	0c00152c 	jal	800054b0 <kernel_printf>
80006860:	00000000 	nop
80006864:	0c00169e 	jal	80005a78 <kernel_getchar>
80006868:	00000000 	nop
8000686c:	af8080a0 	sw	zero,-32608(gp)
80006870:	3c028001 	lui	v0,0x8001
80006874:	a0400668 	sb	zero,1640(v0)
80006878:	2404001f 	li	a0,31
8000687c:	0c0012c9 	jal	80004b24 <kernel_clear_screen>
80006880:	00000000 	nop
80006884:	3c028000 	lui	v0,0x8000
80006888:	24447a30 	addiu	a0,v0,31280
8000688c:	24050fff 	li	a1,4095
80006890:	00003025 	move	a2,zero
80006894:	0c0013b1 	jal	80004ec4 <kernel_puts>
80006898:	00000000 	nop
8000689c:	3c028000 	lui	v0,0x8000
800068a0:	24447a3c 	addiu	a0,v0,31292
800068a4:	24050fff 	li	a1,4095
800068a8:	00003025 	move	a2,zero
800068ac:	0c0013b1 	jal	80004ec4 <kernel_puts>
800068b0:	00000000 	nop
800068b4:	0c00169e 	jal	80005a78 <kernel_getchar>
800068b8:	00000000 	nop
800068bc:	a3c20018 	sb	v0,24(s8)
800068c0:	93c30018 	lbu	v1,24(s8)
800068c4:	2402000a 	li	v0,10
800068c8:	14620022 	bne	v1,v0,80006954 <ps+0x110>
800068cc:	00000000 	nop
800068d0:	8f8380a0 	lw	v1,-32608(gp)
800068d4:	3c028001 	lui	v0,0x8001
800068d8:	24420668 	addiu	v0,v0,1640
800068dc:	00621021 	addu	v0,v1,v0
800068e0:	a0400000 	sb	zero,0(v0)
800068e4:	3c028001 	lui	v0,0x8001
800068e8:	24440668 	addiu	a0,v0,1640
800068ec:	3c028000 	lui	v0,0x8000
800068f0:	24457a40 	addiu	a1,v0,31296
800068f4:	0c0018b4 	jal	800062d0 <kernel_strcmp>
800068f8:	00000000 	nop
800068fc:	1440000a 	bnez	v0,80006928 <ps+0xe4>
80006900:	00000000 	nop
80006904:	af8080a0 	sw	zero,-32608(gp)
80006908:	3c028001 	lui	v0,0x8001
8000690c:	a0400668 	sb	zero,1640(v0)
80006910:	3c028000 	lui	v0,0x8000
80006914:	24447a48 	addiu	a0,v0,31304
80006918:	0c00152c 	jal	800054b0 <kernel_printf>
8000691c:	00000000 	nop
80006920:	10000003 	b	80006930 <ps+0xec>
80006924:	00000000 	nop
80006928:	0c001a84 	jal	80006a10 <parse_cmd>
8000692c:	00000000 	nop
80006930:	af8080a0 	sw	zero,-32608(gp)
80006934:	3c028000 	lui	v0,0x8000
80006938:	24447a3c 	addiu	a0,v0,31292
8000693c:	24050fff 	li	a1,4095
80006940:	00003025 	move	a2,zero
80006944:	0c0013b1 	jal	80004ec4 <kernel_puts>
80006948:	00000000 	nop
8000694c:	1000002e 	b	80006a08 <ps+0x1c4>
80006950:	00000000 	nop
80006954:	93c30018 	lbu	v1,24(s8)
80006958:	24020008 	li	v0,8
8000695c:	14620018 	bne	v1,v0,800069c0 <ps+0x17c>
80006960:	00000000 	nop
80006964:	8f8280a0 	lw	v0,-32608(gp)
80006968:	10400027 	beqz	v0,80006a08 <ps+0x1c4>
8000696c:	00000000 	nop
80006970:	8f8280a0 	lw	v0,-32608(gp)
80006974:	2442ffff 	addiu	v0,v0,-1
80006978:	af8280a0 	sw	v0,-32608(gp)
8000697c:	8f83809c 	lw	v1,-32612(gp)
80006980:	8f828098 	lw	v0,-32616(gp)
80006984:	2442ffff 	addiu	v0,v0,-1
80006988:	afa20010 	sw	v0,16(sp)
8000698c:	24040020 	li	a0,32
80006990:	24050fff 	li	a1,4095
80006994:	00003025 	move	a2,zero
80006998:	00603825 	move	a3,v1
8000699c:	0c00130e 	jal	80004c38 <kernel_putchar_at>
800069a0:	00000000 	nop
800069a4:	8f828098 	lw	v0,-32616(gp)
800069a8:	2442ffff 	addiu	v0,v0,-1
800069ac:	af828098 	sw	v0,-32616(gp)
800069b0:	0c0012a1 	jal	80004a84 <kernel_set_cursor>
800069b4:	00000000 	nop
800069b8:	1000ffbe 	b	800068b4 <ps+0x70>
800069bc:	00000000 	nop
800069c0:	8f8280a0 	lw	v0,-32608(gp)
800069c4:	2842003f 	slti	v0,v0,63
800069c8:	1040000f 	beqz	v0,80006a08 <ps+0x1c4>
800069cc:	00000000 	nop
800069d0:	8f8280a0 	lw	v0,-32608(gp)
800069d4:	24430001 	addiu	v1,v0,1
800069d8:	af8380a0 	sw	v1,-32608(gp)
800069dc:	3c038001 	lui	v1,0x8001
800069e0:	24630668 	addiu	v1,v1,1640
800069e4:	00431021 	addu	v0,v0,v1
800069e8:	93c30018 	lbu	v1,24(s8)
800069ec:	a0430000 	sb	v1,0(v0)
800069f0:	93c20018 	lbu	v0,24(s8)
800069f4:	00402025 	move	a0,v0
800069f8:	24050fff 	li	a1,4095
800069fc:	00003025 	move	a2,zero
80006a00:	0c001336 	jal	80004cd8 <kernel_putchar>
80006a04:	00000000 	nop
80006a08:	1000ffaa 	b	800068b4 <ps+0x70>
80006a0c:	00000000 	nop

80006a10 <parse_cmd>:
80006a10:	27bddf50 	addiu	sp,sp,-8368
80006a14:	afbf20ac 	sw	ra,8364(sp)
80006a18:	afbe20a8 	sw	s8,8360(sp)
80006a1c:	03a0f025 	move	s8,sp
80006a20:	afc0001c 	sw	zero,28(s8)
80006a24:	2404000a 	li	a0,10
80006a28:	00002825 	move	a1,zero
80006a2c:	00003025 	move	a2,zero
80006a30:	0c001336 	jal	80004cd8 <kernel_putchar>
80006a34:	00000000 	nop
80006a38:	afc00010 	sw	zero,16(s8)
80006a3c:	afc00010 	sw	zero,16(s8)
80006a40:	10000013 	b	80006a90 <parse_cmd+0x80>
80006a44:	00000000 	nop
80006a48:	3c028001 	lui	v0,0x8001
80006a4c:	24430668 	addiu	v1,v0,1640
80006a50:	8fc20010 	lw	v0,16(s8)
80006a54:	00621021 	addu	v0,v1,v0
80006a58:	90430000 	lbu	v1,0(v0)
80006a5c:	24020020 	li	v0,32
80006a60:	14620008 	bne	v1,v0,80006a84 <parse_cmd+0x74>
80006a64:	00000000 	nop
80006a68:	3c028001 	lui	v0,0x8001
80006a6c:	24430668 	addiu	v1,v0,1640
80006a70:	8fc20010 	lw	v0,16(s8)
80006a74:	00621021 	addu	v0,v1,v0
80006a78:	a0400000 	sb	zero,0(v0)
80006a7c:	10000008 	b	80006aa0 <parse_cmd+0x90>
80006a80:	00000000 	nop
80006a84:	8fc20010 	lw	v0,16(s8)
80006a88:	24420001 	addiu	v0,v0,1
80006a8c:	afc20010 	sw	v0,16(s8)
80006a90:	8fc20010 	lw	v0,16(s8)
80006a94:	2842003f 	slti	v0,v0,63
80006a98:	1440ffeb 	bnez	v0,80006a48 <parse_cmd+0x38>
80006a9c:	00000000 	nop
80006aa0:	8fc30010 	lw	v1,16(s8)
80006aa4:	2402003f 	li	v0,63
80006aa8:	14620006 	bne	v1,v0,80006ac4 <parse_cmd+0xb4>
80006aac:	00000000 	nop
80006ab0:	3c028001 	lui	v0,0x8001
80006ab4:	24420668 	addiu	v0,v0,1640
80006ab8:	afc20014 	sw	v0,20(s8)
80006abc:	10000007 	b	80006adc <parse_cmd+0xcc>
80006ac0:	00000000 	nop
80006ac4:	8fc20010 	lw	v0,16(s8)
80006ac8:	24430001 	addiu	v1,v0,1
80006acc:	3c028001 	lui	v0,0x8001
80006ad0:	24420668 	addiu	v0,v0,1640
80006ad4:	00621021 	addu	v0,v1,v0
80006ad8:	afc20014 	sw	v0,20(s8)
80006adc:	3c028001 	lui	v0,0x8001
80006ae0:	90420668 	lbu	v0,1640(v0)
80006ae4:	10400261 	beqz	v0,8000746c <parse_cmd+0xa5c>
80006ae8:	00000000 	nop
80006aec:	3c028001 	lui	v0,0x8001
80006af0:	24440668 	addiu	a0,v0,1640
80006af4:	3c028000 	lui	v0,0x8000
80006af8:	24457a5c 	addiu	a1,v0,31324
80006afc:	0c0018b4 	jal	800062d0 <kernel_strcmp>
80006b00:	00000000 	nop
80006b04:	14400006 	bnez	v0,80006b20 <parse_cmd+0x110>
80006b08:	00000000 	nop
80006b0c:	2404001f 	li	a0,31
80006b10:	0c0012c9 	jal	80004b24 <kernel_clear_screen>
80006b14:	00000000 	nop
80006b18:	10000254 	b	8000746c <parse_cmd+0xa5c>
80006b1c:	00000000 	nop
80006b20:	3c028001 	lui	v0,0x8001
80006b24:	24440668 	addiu	a0,v0,1640
80006b28:	3c028000 	lui	v0,0x8000
80006b2c:	24457a64 	addiu	a1,v0,31332
80006b30:	0c0018b4 	jal	800062d0 <kernel_strcmp>
80006b34:	00000000 	nop
80006b38:	14400008 	bnez	v0,80006b5c <parse_cmd+0x14c>
80006b3c:	00000000 	nop
80006b40:	3c028000 	lui	v0,0x8000
80006b44:	24447a6c 	addiu	a0,v0,31340
80006b48:	8fc50014 	lw	a1,20(s8)
80006b4c:	0c00152c 	jal	800054b0 <kernel_printf>
80006b50:	00000000 	nop
80006b54:	10000245 	b	8000746c <parse_cmd+0xa5c>
80006b58:	00000000 	nop
80006b5c:	3c028001 	lui	v0,0x8001
80006b60:	24440668 	addiu	a0,v0,1640
80006b64:	3c028000 	lui	v0,0x8000
80006b68:	24457a70 	addiu	a1,v0,31344
80006b6c:	0c0018b4 	jal	800062d0 <kernel_strcmp>
80006b70:	00000000 	nop
80006b74:	1440000e 	bnez	v0,80006bb0 <parse_cmd+0x1a0>
80006b78:	00000000 	nop
80006b7c:	27c22068 	addiu	v0,s8,8296
80006b80:	00402025 	move	a0,v0
80006b84:	2405000a 	li	a1,10
80006b88:	0c00184d 	jal	80006134 <get_time>
80006b8c:	00000000 	nop
80006b90:	27c32068 	addiu	v1,s8,8296
80006b94:	3c028000 	lui	v0,0x8000
80006b98:	24447a6c 	addiu	a0,v0,31340
80006b9c:	00602825 	move	a1,v1
80006ba0:	0c00152c 	jal	800054b0 <kernel_printf>
80006ba4:	00000000 	nop
80006ba8:	10000230 	b	8000746c <parse_cmd+0xa5c>
80006bac:	00000000 	nop
80006bb0:	3c028001 	lui	v0,0x8001
80006bb4:	24440668 	addiu	a0,v0,1640
80006bb8:	3c028000 	lui	v0,0x8000
80006bbc:	24457a78 	addiu	a1,v0,31352
80006bc0:	0c0018b4 	jal	800062d0 <kernel_strcmp>
80006bc4:	00000000 	nop
80006bc8:	14400005 	bnez	v0,80006be0 <parse_cmd+0x1d0>
80006bcc:	00000000 	nop
80006bd0:	0c001a05 	jal	80006814 <test_syscall4>
80006bd4:	00000000 	nop
80006bd8:	10000224 	b	8000746c <parse_cmd+0xa5c>
80006bdc:	00000000 	nop
80006be0:	3c028001 	lui	v0,0x8001
80006be4:	24440668 	addiu	a0,v0,1640
80006be8:	3c028000 	lui	v0,0x8000
80006bec:	24457a84 	addiu	a1,v0,31364
80006bf0:	0c0018b4 	jal	800062d0 <kernel_strcmp>
80006bf4:	00000000 	nop
80006bf8:	1440001f 	bnez	v0,80006c78 <parse_cmd+0x268>
80006bfc:	00000000 	nop
80006c00:	afc00010 	sw	zero,16(s8)
80006c04:	1000000a 	b	80006c30 <parse_cmd+0x220>
80006c08:	00000000 	nop
80006c0c:	8fc20010 	lw	v0,16(s8)
80006c10:	304300ff 	andi	v1,v0,0xff
80006c14:	8fc20010 	lw	v0,16(s8)
80006c18:	27c40010 	addiu	a0,s8,16
80006c1c:	00821021 	addu	v0,a0,v0
80006c20:	a0430058 	sb	v1,88(v0)
80006c24:	8fc20010 	lw	v0,16(s8)
80006c28:	24420001 	addiu	v0,v0,1
80006c2c:	afc20010 	sw	v0,16(s8)
80006c30:	8fc20010 	lw	v0,16(s8)
80006c34:	28420200 	slti	v0,v0,512
80006c38:	1440fff4 	bnez	v0,80006c0c <parse_cmd+0x1fc>
80006c3c:	00000000 	nop
80006c40:	27c20068 	addiu	v0,s8,104
80006c44:	00402025 	move	a0,v0
80006c48:	24050007 	li	a1,7
80006c4c:	24060001 	li	a2,1
80006c50:	0c001259 	jal	80004964 <sd_write_block>
80006c54:	00000000 	nop
80006c58:	3c028000 	lui	v0,0x8000
80006c5c:	24447a8c 	addiu	a0,v0,31372
80006c60:	24050fff 	li	a1,4095
80006c64:	00003025 	move	a2,zero
80006c68:	0c0013b1 	jal	80004ec4 <kernel_puts>
80006c6c:	00000000 	nop
80006c70:	100001fe 	b	8000746c <parse_cmd+0xa5c>
80006c74:	00000000 	nop
80006c78:	3c028001 	lui	v0,0x8001
80006c7c:	24440668 	addiu	a0,v0,1640
80006c80:	3c028000 	lui	v0,0x8000
80006c84:	24457a94 	addiu	a1,v0,31380
80006c88:	0c0018b4 	jal	800062d0 <kernel_strcmp>
80006c8c:	00000000 	nop
80006c90:	14400022 	bnez	v0,80006d1c <parse_cmd+0x30c>
80006c94:	00000000 	nop
80006c98:	27c20068 	addiu	v0,s8,104
80006c9c:	00402025 	move	a0,v0
80006ca0:	24050007 	li	a1,7
80006ca4:	24060001 	li	a2,1
80006ca8:	0c001223 	jal	8000488c <sd_read_block>
80006cac:	00000000 	nop
80006cb0:	afc00010 	sw	zero,16(s8)
80006cb4:	1000000e 	b	80006cf0 <parse_cmd+0x2e0>
80006cb8:	00000000 	nop
80006cbc:	8fc20010 	lw	v0,16(s8)
80006cc0:	27c30010 	addiu	v1,s8,16
80006cc4:	00621021 	addu	v0,v1,v0
80006cc8:	90420058 	lbu	v0,88(v0)
80006ccc:	00401825 	move	v1,v0
80006cd0:	3c028000 	lui	v0,0x8000
80006cd4:	24447a98 	addiu	a0,v0,31384
80006cd8:	00602825 	move	a1,v1
80006cdc:	0c00152c 	jal	800054b0 <kernel_printf>
80006ce0:	00000000 	nop
80006ce4:	8fc20010 	lw	v0,16(s8)
80006ce8:	24420001 	addiu	v0,v0,1
80006cec:	afc20010 	sw	v0,16(s8)
80006cf0:	8fc20010 	lw	v0,16(s8)
80006cf4:	28420200 	slti	v0,v0,512
80006cf8:	1440fff0 	bnez	v0,80006cbc <parse_cmd+0x2ac>
80006cfc:	00000000 	nop
80006d00:	2404000a 	li	a0,10
80006d04:	24050fff 	li	a1,4095
80006d08:	00003025 	move	a2,zero
80006d0c:	0c001336 	jal	80004cd8 <kernel_putchar>
80006d10:	00000000 	nop
80006d14:	100001d5 	b	8000746c <parse_cmd+0xa5c>
80006d18:	00000000 	nop
80006d1c:	3c028001 	lui	v0,0x8001
80006d20:	24440668 	addiu	a0,v0,1640
80006d24:	3c028000 	lui	v0,0x8000
80006d28:	24457a9c 	addiu	a1,v0,31388
80006d2c:	0c0018b4 	jal	800062d0 <kernel_strcmp>
80006d30:	00000000 	nop
80006d34:	1440001d 	bnez	v0,80006dac <parse_cmd+0x39c>
80006d38:	00000000 	nop
80006d3c:	afc00010 	sw	zero,16(s8)
80006d40:	10000008 	b	80006d64 <parse_cmd+0x354>
80006d44:	00000000 	nop
80006d48:	8fc20010 	lw	v0,16(s8)
80006d4c:	27c30010 	addiu	v1,s8,16
80006d50:	00621021 	addu	v0,v1,v0
80006d54:	a0400058 	sb	zero,88(v0)
80006d58:	8fc20010 	lw	v0,16(s8)
80006d5c:	24420001 	addiu	v0,v0,1
80006d60:	afc20010 	sw	v0,16(s8)
80006d64:	8fc20010 	lw	v0,16(s8)
80006d68:	28420200 	slti	v0,v0,512
80006d6c:	1440fff6 	bnez	v0,80006d48 <parse_cmd+0x338>
80006d70:	00000000 	nop
80006d74:	27c20068 	addiu	v0,s8,104
80006d78:	00402025 	move	a0,v0
80006d7c:	24050007 	li	a1,7
80006d80:	24060001 	li	a2,1
80006d84:	0c001259 	jal	80004964 <sd_write_block>
80006d88:	00000000 	nop
80006d8c:	3c028000 	lui	v0,0x8000
80006d90:	24447aa4 	addiu	a0,v0,31396
80006d94:	24050fff 	li	a1,4095
80006d98:	00003025 	move	a2,zero
80006d9c:	0c0013b1 	jal	80004ec4 <kernel_puts>
80006da0:	00000000 	nop
80006da4:	100001b1 	b	8000746c <parse_cmd+0xa5c>
80006da8:	00000000 	nop
80006dac:	3c028001 	lui	v0,0x8001
80006db0:	24440668 	addiu	a0,v0,1640
80006db4:	3c028000 	lui	v0,0x8000
80006db8:	24457aac 	addiu	a1,v0,31404
80006dbc:	0c0018b4 	jal	800062d0 <kernel_strcmp>
80006dc0:	00000000 	nop
80006dc4:	14400007 	bnez	v0,80006de4 <parse_cmd+0x3d4>
80006dc8:	00000000 	nop
80006dcc:	0c000842 	jal	80002108 <bootmap_info>
80006dd0:	00000000 	nop
80006dd4:	0c000e6b 	jal	800039ac <buddy_info>
80006dd8:	00000000 	nop
80006ddc:	100001a3 	b	8000746c <parse_cmd+0xa5c>
80006de0:	00000000 	nop
80006de4:	3c028001 	lui	v0,0x8001
80006de8:	24440668 	addiu	a0,v0,1640
80006dec:	3c028000 	lui	v0,0x8000
80006df0:	24457ab4 	addiu	a1,v0,31412
80006df4:	0c0018b4 	jal	800062d0 <kernel_strcmp>
80006df8:	00000000 	nop
80006dfc:	14400013 	bnez	v0,80006e4c <parse_cmd+0x43c>
80006e00:	00000000 	nop
80006e04:	24040400 	li	a0,1024
80006e08:	0c000ca4 	jal	80003290 <kmalloc>
80006e0c:	00000000 	nop
80006e10:	afc20020 	sw	v0,32(s8)
80006e14:	3c028000 	lui	v0,0x8000
80006e18:	24447abc 	addiu	a0,v0,31420
80006e1c:	8fc50020 	lw	a1,32(s8)
80006e20:	0c00152c 	jal	800054b0 <kernel_printf>
80006e24:	00000000 	nop
80006e28:	8fc40020 	lw	a0,32(s8)
80006e2c:	0c000cfc 	jal	800033f0 <kfree>
80006e30:	00000000 	nop
80006e34:	3c028000 	lui	v0,0x8000
80006e38:	24447ad8 	addiu	a0,v0,31448
80006e3c:	0c00152c 	jal	800054b0 <kernel_printf>
80006e40:	00000000 	nop
80006e44:	10000189 	b	8000746c <parse_cmd+0xa5c>
80006e48:	00000000 	nop
80006e4c:	3c028001 	lui	v0,0x8001
80006e50:	24440668 	addiu	a0,v0,1640
80006e54:	3c028000 	lui	v0,0x8000
80006e58:	24457ae8 	addiu	a1,v0,31464
80006e5c:	0c0018b4 	jal	800062d0 <kernel_strcmp>
80006e60:	00000000 	nop
80006e64:	1440003b 	bnez	v0,80006f54 <parse_cmd+0x544>
80006e68:	00000000 	nop
80006e6c:	afc02074 	sw	zero,8308(s8)
80006e70:	afc02078 	sw	zero,8312(s8)
80006e74:	afc0207c 	sw	zero,8316(s8)
80006e78:	afc02080 	sw	zero,8320(s8)
80006e7c:	afc02084 	sw	zero,8324(s8)
80006e80:	afc02088 	sw	zero,8328(s8)
80006e84:	afc0208c 	sw	zero,8332(s8)
80006e88:	afc02090 	sw	zero,8336(s8)
80006e8c:	afc02094 	sw	zero,8340(s8)
80006e90:	afc02098 	sw	zero,8344(s8)
80006e94:	afc0209c 	sw	zero,8348(s8)
80006e98:	afc020a0 	sw	zero,8352(s8)
80006e9c:	24020060 	li	v0,96
80006ea0:	afc22074 	sw	v0,8308(s8)
80006ea4:	240200c0 	li	v0,192
80006ea8:	afc22078 	sw	v0,8312(s8)
80006eac:	24020008 	li	v0,8
80006eb0:	afc2207c 	sw	v0,8316(s8)
80006eb4:	24020010 	li	v0,16
80006eb8:	afc22080 	sw	v0,8320(s8)
80006ebc:	24020020 	li	v0,32
80006ec0:	afc22084 	sw	v0,8324(s8)
80006ec4:	24020040 	li	v0,64
80006ec8:	afc22088 	sw	v0,8328(s8)
80006ecc:	24020080 	li	v0,128
80006ed0:	afc2208c 	sw	v0,8332(s8)
80006ed4:	24020100 	li	v0,256
80006ed8:	afc22090 	sw	v0,8336(s8)
80006edc:	24020200 	li	v0,512
80006ee0:	afc22094 	sw	v0,8340(s8)
80006ee4:	24020400 	li	v0,1024
80006ee8:	afc22098 	sw	v0,8344(s8)
80006eec:	afc00018 	sw	zero,24(s8)
80006ef0:	10000012 	b	80006f3c <parse_cmd+0x52c>
80006ef4:	00000000 	nop
80006ef8:	8fc20018 	lw	v0,24(s8)
80006efc:	00021080 	sll	v0,v0,0x2
80006f00:	27c30010 	addiu	v1,s8,16
80006f04:	00621021 	addu	v0,v1,v0
80006f08:	8c422064 	lw	v0,8292(v0)
80006f0c:	00402025 	move	a0,v0
80006f10:	0c000ca4 	jal	80003290 <kmalloc>
80006f14:	00000000 	nop
80006f18:	afc20024 	sw	v0,36(s8)
80006f1c:	3c028000 	lui	v0,0x8000
80006f20:	24447abc 	addiu	a0,v0,31420
80006f24:	8fc50024 	lw	a1,36(s8)
80006f28:	0c00152c 	jal	800054b0 <kernel_printf>
80006f2c:	00000000 	nop
80006f30:	8fc20018 	lw	v0,24(s8)
80006f34:	24420001 	addiu	v0,v0,1
80006f38:	afc20018 	sw	v0,24(s8)
80006f3c:	8fc20018 	lw	v0,24(s8)
80006f40:	2c42000a 	sltiu	v0,v0,10
80006f44:	1440ffec 	bnez	v0,80006ef8 <parse_cmd+0x4e8>
80006f48:	00000000 	nop
80006f4c:	10000147 	b	8000746c <parse_cmd+0xa5c>
80006f50:	00000000 	nop
80006f54:	3c028001 	lui	v0,0x8001
80006f58:	24440668 	addiu	a0,v0,1640
80006f5c:	3c028000 	lui	v0,0x8000
80006f60:	24457af4 	addiu	a1,v0,31476
80006f64:	0c0018b4 	jal	800062d0 <kernel_strcmp>
80006f68:	00000000 	nop
80006f6c:	14400027 	bnez	v0,8000700c <parse_cmd+0x5fc>
80006f70:	00000000 	nop
80006f74:	3c040001 	lui	a0,0x1
80006f78:	0c000ca4 	jal	80003290 <kmalloc>
80006f7c:	00000000 	nop
80006f80:	afc20028 	sw	v0,40(s8)
80006f84:	3c028000 	lui	v0,0x8000
80006f88:	24447abc 	addiu	a0,v0,31420
80006f8c:	8fc50028 	lw	a1,40(s8)
80006f90:	0c00152c 	jal	800054b0 <kernel_printf>
80006f94:	00000000 	nop
80006f98:	34048000 	li	a0,0x8000
80006f9c:	0c000ca4 	jal	80003290 <kmalloc>
80006fa0:	00000000 	nop
80006fa4:	afc20028 	sw	v0,40(s8)
80006fa8:	3c028000 	lui	v0,0x8000
80006fac:	24447abc 	addiu	a0,v0,31420
80006fb0:	8fc50028 	lw	a1,40(s8)
80006fb4:	0c00152c 	jal	800054b0 <kernel_printf>
80006fb8:	00000000 	nop
80006fbc:	24044000 	li	a0,16384
80006fc0:	0c000ca4 	jal	80003290 <kmalloc>
80006fc4:	00000000 	nop
80006fc8:	afc20028 	sw	v0,40(s8)
80006fcc:	3c028000 	lui	v0,0x8000
80006fd0:	24447abc 	addiu	a0,v0,31420
80006fd4:	8fc50028 	lw	a1,40(s8)
80006fd8:	0c00152c 	jal	800054b0 <kernel_printf>
80006fdc:	00000000 	nop
80006fe0:	24042000 	li	a0,8192
80006fe4:	0c000ca4 	jal	80003290 <kmalloc>
80006fe8:	00000000 	nop
80006fec:	afc20028 	sw	v0,40(s8)
80006ff0:	3c028000 	lui	v0,0x8000
80006ff4:	24447abc 	addiu	a0,v0,31420
80006ff8:	8fc50028 	lw	a1,40(s8)
80006ffc:	0c00152c 	jal	800054b0 <kernel_printf>
80007000:	00000000 	nop
80007004:	10000119 	b	8000746c <parse_cmd+0xa5c>
80007008:	00000000 	nop
8000700c:	3c028001 	lui	v0,0x8001
80007010:	24440668 	addiu	a0,v0,1640
80007014:	3c028000 	lui	v0,0x8000
80007018:	24457b00 	addiu	a1,v0,31488
8000701c:	0c0018b4 	jal	800062d0 <kernel_strcmp>
80007020:	00000000 	nop
80007024:	1440005a 	bnez	v0,80007190 <parse_cmd+0x780>
80007028:	00000000 	nop
8000702c:	24041000 	li	a0,4096
80007030:	0c000ca4 	jal	80003290 <kmalloc>
80007034:	00000000 	nop
80007038:	afc2002c 	sw	v0,44(s8)
8000703c:	3c028000 	lui	v0,0x8000
80007040:	24447b08 	addiu	a0,v0,31496
80007044:	8fc5002c 	lw	a1,44(s8)
80007048:	0c00152c 	jal	800054b0 <kernel_printf>
8000704c:	00000000 	nop
80007050:	24041000 	li	a0,4096
80007054:	0c000ca4 	jal	80003290 <kmalloc>
80007058:	00000000 	nop
8000705c:	afc2002c 	sw	v0,44(s8)
80007060:	3c028000 	lui	v0,0x8000
80007064:	24447b08 	addiu	a0,v0,31496
80007068:	8fc5002c 	lw	a1,44(s8)
8000706c:	0c00152c 	jal	800054b0 <kernel_printf>
80007070:	00000000 	nop
80007074:	24041000 	li	a0,4096
80007078:	0c000ca4 	jal	80003290 <kmalloc>
8000707c:	00000000 	nop
80007080:	afc2002c 	sw	v0,44(s8)
80007084:	3c028000 	lui	v0,0x8000
80007088:	24447b08 	addiu	a0,v0,31496
8000708c:	8fc5002c 	lw	a1,44(s8)
80007090:	0c00152c 	jal	800054b0 <kernel_printf>
80007094:	00000000 	nop
80007098:	24042000 	li	a0,8192
8000709c:	0c000ca4 	jal	80003290 <kmalloc>
800070a0:	00000000 	nop
800070a4:	afc2002c 	sw	v0,44(s8)
800070a8:	3c028000 	lui	v0,0x8000
800070ac:	24447b24 	addiu	a0,v0,31524
800070b0:	8fc5002c 	lw	a1,44(s8)
800070b4:	0c00152c 	jal	800054b0 <kernel_printf>
800070b8:	00000000 	nop
800070bc:	24041000 	li	a0,4096
800070c0:	0c000ca4 	jal	80003290 <kmalloc>
800070c4:	00000000 	nop
800070c8:	afc2002c 	sw	v0,44(s8)
800070cc:	3c028000 	lui	v0,0x8000
800070d0:	24447b08 	addiu	a0,v0,31496
800070d4:	8fc5002c 	lw	a1,44(s8)
800070d8:	0c00152c 	jal	800054b0 <kernel_printf>
800070dc:	00000000 	nop
800070e0:	8fc4002c 	lw	a0,44(s8)
800070e4:	0c000cfc 	jal	800033f0 <kfree>
800070e8:	00000000 	nop
800070ec:	8fc4002c 	lw	a0,44(s8)
800070f0:	0c000cfc 	jal	800033f0 <kfree>
800070f4:	00000000 	nop
800070f8:	24041000 	li	a0,4096
800070fc:	0c000ca4 	jal	80003290 <kmalloc>
80007100:	00000000 	nop
80007104:	afc2002c 	sw	v0,44(s8)
80007108:	3c028000 	lui	v0,0x8000
8000710c:	24447b08 	addiu	a0,v0,31496
80007110:	8fc5002c 	lw	a1,44(s8)
80007114:	0c00152c 	jal	800054b0 <kernel_printf>
80007118:	00000000 	nop
8000711c:	24041000 	li	a0,4096
80007120:	0c000ca4 	jal	80003290 <kmalloc>
80007124:	00000000 	nop
80007128:	afc2002c 	sw	v0,44(s8)
8000712c:	3c028000 	lui	v0,0x8000
80007130:	24447b08 	addiu	a0,v0,31496
80007134:	8fc5002c 	lw	a1,44(s8)
80007138:	0c00152c 	jal	800054b0 <kernel_printf>
8000713c:	00000000 	nop
80007140:	24041000 	li	a0,4096
80007144:	0c000ca4 	jal	80003290 <kmalloc>
80007148:	00000000 	nop
8000714c:	afc2002c 	sw	v0,44(s8)
80007150:	3c028000 	lui	v0,0x8000
80007154:	24447b08 	addiu	a0,v0,31496
80007158:	8fc5002c 	lw	a1,44(s8)
8000715c:	0c00152c 	jal	800054b0 <kernel_printf>
80007160:	00000000 	nop
80007164:	24041000 	li	a0,4096
80007168:	0c000ca4 	jal	80003290 <kmalloc>
8000716c:	00000000 	nop
80007170:	afc2002c 	sw	v0,44(s8)
80007174:	3c028000 	lui	v0,0x8000
80007178:	24447b08 	addiu	a0,v0,31496
8000717c:	8fc5002c 	lw	a1,44(s8)
80007180:	0c00152c 	jal	800054b0 <kernel_printf>
80007184:	00000000 	nop
80007188:	100000b8 	b	8000746c <parse_cmd+0xa5c>
8000718c:	00000000 	nop
80007190:	3c028001 	lui	v0,0x8001
80007194:	24440668 	addiu	a0,v0,1640
80007198:	3c028000 	lui	v0,0x8000
8000719c:	24457b40 	addiu	a1,v0,31552
800071a0:	0c0018b4 	jal	800062d0 <kernel_strcmp>
800071a4:	00000000 	nop
800071a8:	1440004e 	bnez	v0,800072e4 <parse_cmd+0x8d4>
800071ac:	00000000 	nop
800071b0:	24040400 	li	a0,1024
800071b4:	0c000ca4 	jal	80003290 <kmalloc>
800071b8:	00000000 	nop
800071bc:	afc20030 	sw	v0,48(s8)
800071c0:	3c028000 	lui	v0,0x8000
800071c4:	24447b08 	addiu	a0,v0,31496
800071c8:	8fc50030 	lw	a1,48(s8)
800071cc:	0c00152c 	jal	800054b0 <kernel_printf>
800071d0:	00000000 	nop
800071d4:	24040400 	li	a0,1024
800071d8:	0c000ca4 	jal	80003290 <kmalloc>
800071dc:	00000000 	nop
800071e0:	afc20034 	sw	v0,52(s8)
800071e4:	3c028000 	lui	v0,0x8000
800071e8:	24447b08 	addiu	a0,v0,31496
800071ec:	8fc50034 	lw	a1,52(s8)
800071f0:	0c00152c 	jal	800054b0 <kernel_printf>
800071f4:	00000000 	nop
800071f8:	24040400 	li	a0,1024
800071fc:	0c000ca4 	jal	80003290 <kmalloc>
80007200:	00000000 	nop
80007204:	afc20038 	sw	v0,56(s8)
80007208:	3c028000 	lui	v0,0x8000
8000720c:	24447b08 	addiu	a0,v0,31496
80007210:	8fc50038 	lw	a1,56(s8)
80007214:	0c00152c 	jal	800054b0 <kernel_printf>
80007218:	00000000 	nop
8000721c:	8fc40034 	lw	a0,52(s8)
80007220:	0c000cfc 	jal	800033f0 <kfree>
80007224:	00000000 	nop
80007228:	8fc40030 	lw	a0,48(s8)
8000722c:	0c000cfc 	jal	800033f0 <kfree>
80007230:	00000000 	nop
80007234:	8fc40034 	lw	a0,52(s8)
80007238:	0c000cfc 	jal	800033f0 <kfree>
8000723c:	00000000 	nop
80007240:	8fc40030 	lw	a0,48(s8)
80007244:	0c000cfc 	jal	800033f0 <kfree>
80007248:	00000000 	nop
8000724c:	24040400 	li	a0,1024
80007250:	0c000ca4 	jal	80003290 <kmalloc>
80007254:	00000000 	nop
80007258:	afc20034 	sw	v0,52(s8)
8000725c:	3c028000 	lui	v0,0x8000
80007260:	24447b08 	addiu	a0,v0,31496
80007264:	8fc50034 	lw	a1,52(s8)
80007268:	0c00152c 	jal	800054b0 <kernel_printf>
8000726c:	00000000 	nop
80007270:	24040400 	li	a0,1024
80007274:	0c000ca4 	jal	80003290 <kmalloc>
80007278:	00000000 	nop
8000727c:	afc20034 	sw	v0,52(s8)
80007280:	3c028000 	lui	v0,0x8000
80007284:	24447b08 	addiu	a0,v0,31496
80007288:	8fc50034 	lw	a1,52(s8)
8000728c:	0c00152c 	jal	800054b0 <kernel_printf>
80007290:	00000000 	nop
80007294:	24040400 	li	a0,1024
80007298:	0c000ca4 	jal	80003290 <kmalloc>
8000729c:	00000000 	nop
800072a0:	afc20034 	sw	v0,52(s8)
800072a4:	3c028000 	lui	v0,0x8000
800072a8:	24447b08 	addiu	a0,v0,31496
800072ac:	8fc50034 	lw	a1,52(s8)
800072b0:	0c00152c 	jal	800054b0 <kernel_printf>
800072b4:	00000000 	nop
800072b8:	24040400 	li	a0,1024
800072bc:	0c000ca4 	jal	80003290 <kmalloc>
800072c0:	00000000 	nop
800072c4:	afc20034 	sw	v0,52(s8)
800072c8:	3c028000 	lui	v0,0x8000
800072cc:	24447b08 	addiu	a0,v0,31496
800072d0:	8fc50034 	lw	a1,52(s8)
800072d4:	0c00152c 	jal	800054b0 <kernel_printf>
800072d8:	00000000 	nop
800072dc:	10000063 	b	8000746c <parse_cmd+0xa5c>
800072e0:	00000000 	nop
800072e4:	3c028001 	lui	v0,0x8001
800072e8:	24440668 	addiu	a0,v0,1640
800072ec:	3c028000 	lui	v0,0x8000
800072f0:	24457b48 	addiu	a1,v0,31560
800072f4:	0c0018b4 	jal	800062d0 <kernel_strcmp>
800072f8:	00000000 	nop
800072fc:	1440004f 	bnez	v0,8000743c <parse_cmd+0xa2c>
80007300:	00000000 	nop
80007304:	24040400 	li	a0,1024
80007308:	0c000ca4 	jal	80003290 <kmalloc>
8000730c:	00000000 	nop
80007310:	afc2003c 	sw	v0,60(s8)
80007314:	3c028000 	lui	v0,0x8000
80007318:	24447b08 	addiu	a0,v0,31496
8000731c:	8fc5003c 	lw	a1,60(s8)
80007320:	0c00152c 	jal	800054b0 <kernel_printf>
80007324:	00000000 	nop
80007328:	24040400 	li	a0,1024
8000732c:	0c000ca4 	jal	80003290 <kmalloc>
80007330:	00000000 	nop
80007334:	afc20040 	sw	v0,64(s8)
80007338:	3c028000 	lui	v0,0x8000
8000733c:	24447b08 	addiu	a0,v0,31496
80007340:	8fc50040 	lw	a1,64(s8)
80007344:	0c00152c 	jal	800054b0 <kernel_printf>
80007348:	00000000 	nop
8000734c:	24040400 	li	a0,1024
80007350:	0c000ca4 	jal	80003290 <kmalloc>
80007354:	00000000 	nop
80007358:	afc20044 	sw	v0,68(s8)
8000735c:	3c028000 	lui	v0,0x8000
80007360:	24447b08 	addiu	a0,v0,31496
80007364:	8fc50044 	lw	a1,68(s8)
80007368:	0c00152c 	jal	800054b0 <kernel_printf>
8000736c:	00000000 	nop
80007370:	8fc4003c 	lw	a0,60(s8)
80007374:	0c000cfc 	jal	800033f0 <kfree>
80007378:	00000000 	nop
8000737c:	8fc40040 	lw	a0,64(s8)
80007380:	0c000cfc 	jal	800033f0 <kfree>
80007384:	00000000 	nop
80007388:	8fc40044 	lw	a0,68(s8)
8000738c:	0c000cfc 	jal	800033f0 <kfree>
80007390:	00000000 	nop
80007394:	3c028000 	lui	v0,0x8000
80007398:	24447b50 	addiu	a0,v0,31568
8000739c:	0c00152c 	jal	800054b0 <kernel_printf>
800073a0:	00000000 	nop
800073a4:	24040400 	li	a0,1024
800073a8:	0c000ca4 	jal	80003290 <kmalloc>
800073ac:	00000000 	nop
800073b0:	afc20040 	sw	v0,64(s8)
800073b4:	3c028000 	lui	v0,0x8000
800073b8:	24447b08 	addiu	a0,v0,31496
800073bc:	8fc50040 	lw	a1,64(s8)
800073c0:	0c00152c 	jal	800054b0 <kernel_printf>
800073c4:	00000000 	nop
800073c8:	24040400 	li	a0,1024
800073cc:	0c000ca4 	jal	80003290 <kmalloc>
800073d0:	00000000 	nop
800073d4:	afc20040 	sw	v0,64(s8)
800073d8:	3c028000 	lui	v0,0x8000
800073dc:	24447b08 	addiu	a0,v0,31496
800073e0:	8fc50040 	lw	a1,64(s8)
800073e4:	0c00152c 	jal	800054b0 <kernel_printf>
800073e8:	00000000 	nop
800073ec:	24040400 	li	a0,1024
800073f0:	0c000ca4 	jal	80003290 <kmalloc>
800073f4:	00000000 	nop
800073f8:	afc20040 	sw	v0,64(s8)
800073fc:	3c028000 	lui	v0,0x8000
80007400:	24447b08 	addiu	a0,v0,31496
80007404:	8fc50040 	lw	a1,64(s8)
80007408:	0c00152c 	jal	800054b0 <kernel_printf>
8000740c:	00000000 	nop
80007410:	24040400 	li	a0,1024
80007414:	0c000ca4 	jal	80003290 <kmalloc>
80007418:	00000000 	nop
8000741c:	afc20040 	sw	v0,64(s8)
80007420:	3c028000 	lui	v0,0x8000
80007424:	24447b08 	addiu	a0,v0,31496
80007428:	8fc50040 	lw	a1,64(s8)
8000742c:	0c00152c 	jal	800054b0 <kernel_printf>
80007430:	00000000 	nop
80007434:	1000000d 	b	8000746c <parse_cmd+0xa5c>
80007438:	00000000 	nop
8000743c:	3c028001 	lui	v0,0x8001
80007440:	24440668 	addiu	a0,v0,1640
80007444:	24050fff 	li	a1,4095
80007448:	00003025 	move	a2,zero
8000744c:	0c0013b1 	jal	80004ec4 <kernel_puts>
80007450:	00000000 	nop
80007454:	3c028000 	lui	v0,0x8000
80007458:	24447b60 	addiu	a0,v0,31584
8000745c:	24050fff 	li	a1,4095
80007460:	00003025 	move	a2,zero
80007464:	0c0013b1 	jal	80004ec4 <kernel_puts>
80007468:	00000000 	nop
8000746c:	03c0e825 	move	sp,s8
80007470:	8fbf20ac 	lw	ra,8364(sp)
80007474:	8fbe20a8 	lw	s8,8360(sp)
80007478:	27bd20b0 	addiu	sp,sp,8368
8000747c:	03e00008 	jr	ra
80007480:	00000000 	nop
